c__builtin__
set
p0
((lp1
S'https://www.thingiverse.com/thing:2355355'
p2
aS'https://www.thingiverse.com/thing:2487581'
p3
aS'https://www.thingiverse.com/thing:1776429'
p4
aS'https://www.thingiverse.com/thing:1683033'
p5
aS'https://www.thingiverse.com/thing:2411971'
p6
aS'https://www.thingiverse.com/thing:402596'
p7
aS'https://www.thingiverse.com/thing:2169370'
p8
aS'https://www.thingiverse.com/thing:369738'
p9
aS'https://www.thingiverse.com/thing:2449310'
p10
aS'https://www.thingiverse.com/thing:713300'
p11
aS'https://www.thingiverse.com/thing:214463'
p12
aS'https://www.thingiverse.com/thing:935144'
p13
aS'https://www.thingiverse.com/thing:2491484'
p14
aS'https://www.thingiverse.com/thing:107862'
p15
aS'https://www.thingiverse.com/thing:2502274'
p16
aS'https://www.thingiverse.com/thing:2504488'
p17
aS'https://www.thingiverse.com/thing:952848'
p18
aS'https://www.thingiverse.com/thing:185912'
p19
aS'https://www.thingiverse.com/thing:2383913'
p20
aS'https://www.thingiverse.com/thing:184659'
p21
aS'https://www.thingiverse.com/thing:188558'
p22
aS'https://www.thingiverse.com/thing:728579'
p23
aS'https://www.thingiverse.com/thing:269844'
p24
aS'https://www.thingiverse.com/thing:2496698'
p25
aS'https://www.thingiverse.com/thing:2471790'
p26
aS'https://www.thingiverse.com/thing:2516798'
p27
aS'https://www.thingiverse.com/thing:738348'
p28
aS'https://www.thingiverse.com/thing:2401490'
p29
aS'https://www.thingiverse.com/thing:1996077'
p30
aS'https://www.thingiverse.com/thing:2163949'
p31
aS'https://www.thingiverse.com/thing:1163884'
p32
aS'https://www.thingiverse.com/thing:21112'
p33
aS'https://www.thingiverse.com/thing:906562'
p34
aS'https://www.thingiverse.com/thing:2105371'
p35
aS'https://www.thingiverse.com/thing:441087'
p36
aS'https://www.thingiverse.com/thing:1596833'
p37
aS'https://www.thingiverse.com/thing:788399'
p38
aS'https://www.thingiverse.com/thing:940761'
p39
aS'https://www.thingiverse.com/thing:2009550'
p40
aS'https://www.thingiverse.com/thing:2427009'
p41
aS'https://www.thingiverse.com/thing:864316'
p42
aS'https://www.thingiverse.com/thing:2298829'
p43
aS'https://www.thingiverse.com/thing:950602'
p44
aS'https://www.thingiverse.com/thing:989780'
p45
aS'https://www.thingiverse.com/thing:257911'
p46
aS'https://www.thingiverse.com/thing:2064476'
p47
aS'https://www.thingiverse.com/thing:2330856'
p48
aS'https://www.thingiverse.com/thing:40593'
p49
aS'https://www.thingiverse.com/thing:763968'
p50
aS'https://www.thingiverse.com/thing:2146128'
p51
aS'https://www.thingiverse.com/thing:2501240'
p52
aS'https://www.thingiverse.com/thing:761806'
p53
aS'https://www.thingiverse.com/thing:38277'
p54
aS'https://www.thingiverse.com/thing:1063761'
p55
aS'https://www.thingiverse.com/thing:1307100'
p56
aS'https://www.thingiverse.com/thing:2508123'
p57
aS'https://www.thingiverse.com/thing:83570'
p58
aS'https://www.thingiverse.com/thing:896952'
p59
aS'https://www.thingiverse.com/thing:890283'
p60
aS'https://www.thingiverse.com/thing:1740115'
p61
aS'https://www.thingiverse.com/thing:2471816'
p62
aS'https://www.thingiverse.com/thing:2507372'
p63
aS'https://www.thingiverse.com/thing:2035825'
p64
aS'https://www.thingiverse.com/thing:1169476'
p65
aS'https://www.thingiverse.com/thing:1235346'
p66
aS'https://www.thingiverse.com/thing:25587'
p67
aS'https://www.thingiverse.com/thing:1011980'
p68
aS'https://www.thingiverse.com/thing:31234'
p69
aS'https://www.thingiverse.com/thing:1484261'
p70
aS'https://www.thingiverse.com/thing:867811'
p71
aS'https://www.thingiverse.com/thing:2407893'
p72
aS'https://www.thingiverse.com/thing:2486180'
p73
aS'https://www.thingiverse.com/thing:1395701'
p74
aS'https://www.thingiverse.com/thing:2063802'
p75
aS'https://www.thingiverse.com/thing:377505'
p76
aS'https://www.thingiverse.com/thing:2505153'
p77
aS'https://www.thingiverse.com/thing:768695'
p78
aS'https://www.thingiverse.com/thing:2357589'
p79
aS'https://www.thingiverse.com/thing:132982'
p80
aS'https://www.thingiverse.com/thing:2187837'
p81
aS'https://www.thingiverse.com/thing:1762299'
p82
aS'https://www.thingiverse.com/thing:54024'
p83
aS'https://www.thingiverse.com/thing:582501'
p84
aS'https://www.thingiverse.com/thing:51943'
p85
aS'https://www.thingiverse.com/thing:1014620'
p86
aS'https://www.thingiverse.com/thing:1773900'
p87
aS'https://www.thingiverse.com/thing:150212'
p88
aS'https://www.thingiverse.com/thing:2392119'
p89
aS'https://www.thingiverse.com/thing:2335566'
p90
aS'https://www.thingiverse.com/thing:904824'
p91
aS'https://www.thingiverse.com/thing:1937590'
p92
aS'https://www.thingiverse.com/thing:2503870'
p93
aS'https://www.thingiverse.com/thing:2508830'
p94
aS'https://www.thingiverse.com/thing:14719'
p95
aS'https://www.thingiverse.com/thing:2504394'
p96
aS'https://www.thingiverse.com/thing:314027'
p97
aS'https://www.thingiverse.com/thing:182130'
p98
aS'https://www.thingiverse.com/thing:261145'
p99
aS'https://www.thingiverse.com/thing:2171291'
p100
aS'https://www.thingiverse.com/thing:2043493'
p101
aS'https://www.thingiverse.com/thing:1671517'
p102
aS'https://www.thingiverse.com/thing:349651'
p103
aS'https://www.thingiverse.com/thing:911764'
p104
aS'https://www.thingiverse.com/thing:1713315'
p105
aS'https://www.thingiverse.com/thing:2238727'
p106
aS'https://www.thingiverse.com/thing:104561'
p107
aS'https://www.thingiverse.com/thing:2494680'
p108
aS'https://www.thingiverse.com/thing:221727'
p109
aS'https://www.thingiverse.com/thing:69709'
p110
aS'https://www.thingiverse.com/thing:389329'
p111
aS'https://www.thingiverse.com/thing:359618'
p112
aS'https://www.thingiverse.com/thing:1327093'
p113
aS'https://www.thingiverse.com/thing:2227746'
p114
aS'https://www.thingiverse.com/thing:132189'
p115
aS'https://www.thingiverse.com/thing:1720394'
p116
aS'https://www.thingiverse.com/thing:87458'
p117
aS'https://www.thingiverse.com/thing:2026795'
p118
aS'https://www.thingiverse.com/thing:768527'
p119
aS'https://www.thingiverse.com/thing:936611'
p120
aS'https://www.thingiverse.com/thing:1091544'
p121
aS'https://www.thingiverse.com/thing:1489058'
p122
aS'https://www.thingiverse.com/thing:16627'
p123
aS'https://www.thingiverse.com/thing:2473812'
p124
aS'https://www.thingiverse.com/thing:918770'
p125
aS'https://www.thingiverse.com/thing:2500120'
p126
aS'https://www.thingiverse.com/thing:854890'
p127
aS'https://www.thingiverse.com/thing:943122'
p128
aS'https://www.thingiverse.com/thing:2481429'
p129
aS'https://www.thingiverse.com/thing:1452396'
p130
aS'https://www.thingiverse.com/thing:2479885'
p131
aS'https://www.thingiverse.com/thing:1253190'
p132
aS'https://www.thingiverse.com/thing:888328'
p133
aS'https://www.thingiverse.com/thing:537306'
p134
aS'https://www.thingiverse.com/thing:35248'
p135
aS'https://www.thingiverse.com/thing:1315745'
p136
aS'https://www.thingiverse.com/thing:2339441'
p137
aS'https://www.thingiverse.com/thing:2506380'
p138
aS'https://www.thingiverse.com/thing:210170'
p139
aS'https://www.thingiverse.com/thing:2517215'
p140
aS'https://www.thingiverse.com/thing:168510'
p141
aS'https://www.thingiverse.com/thing:883687'
p142
aS'https://www.thingiverse.com/thing:2490216'
p143
aS'https://www.thingiverse.com/thing:1872473'
p144
aS'https://www.thingiverse.com/thing:1716769'
p145
aS'https://www.thingiverse.com/thing:2239254'
p146
aS'https://www.thingiverse.com/thing:65869'
p147
aS'https://www.thingiverse.com/thing:1001286'
p148
aS'https://www.thingiverse.com/thing:2113608'
p149
aS'https://www.thingiverse.com/thing:2303575'
p150
aS'https://www.thingiverse.com/thing:2480808'
p151
aS'https://www.thingiverse.com/thing:452177'
p152
aS'https://www.thingiverse.com/thing:124725'
p153
aS'https://www.thingiverse.com/thing:16726'
p154
aS'https://www.thingiverse.com/thing:1199870'
p155
aS'https://www.thingiverse.com/thing:1465333'
p156
aS'https://www.thingiverse.com/thing:2448415'
p157
aS'https://www.thingiverse.com/thing:2486317'
p158
aS'https://www.thingiverse.com/thing:2460171'
p159
aS'https://www.thingiverse.com/thing:2476401'
p160
aS'https://www.thingiverse.com/thing:2012753'
p161
aS'https://www.thingiverse.com/thing:92847'
p162
aS'https://www.thingiverse.com/thing:801195'
p163
aS'https://www.thingiverse.com/thing:779362'
p164
aS'https://www.thingiverse.com/thing:2477958'
p165
aS'https://www.thingiverse.com/thing:2480249'
p166
aS'https://www.thingiverse.com/thing:646144'
p167
aS'https://www.thingiverse.com/thing:2490522'
p168
aS'https://www.thingiverse.com/thing:1300298'
p169
aS'https://www.thingiverse.com/thing:2487915'
p170
aS'https://www.thingiverse.com/thing:152531'
p171
aS'https://www.thingiverse.com/thing:1001065'
p172
aS'https://www.thingiverse.com/thing:448914'
p173
aS'https://www.thingiverse.com/thing:672250'
p174
aS'https://www.thingiverse.com/thing:2375745'
p175
aS'https://www.thingiverse.com/thing:2488671'
p176
aS'https://www.thingiverse.com/thing:2480647'
p177
aS'https://www.thingiverse.com/thing:2473470'
p178
aS'https://www.thingiverse.com/thing:2023947'
p179
aS'https://www.thingiverse.com/thing:2381632'
p180
aS'https://www.thingiverse.com/thing:653085'
p181
aS'https://www.thingiverse.com/thing:1932974'
p182
aS'https://www.thingiverse.com/thing:210142'
p183
aS'https://www.thingiverse.com/thing:2195818'
p184
aS'https://www.thingiverse.com/thing:430957'
p185
aS'https://www.thingiverse.com/thing:761744'
p186
aS'https://www.thingiverse.com/thing:2491321'
p187
aS'https://www.thingiverse.com/thing:909499'
p188
aS'https://www.thingiverse.com/thing:2491499'
p189
aS'https://www.thingiverse.com/thing:1019441'
p190
aS'https://www.thingiverse.com/thing:343093'
p191
aS'https://www.thingiverse.com/thing:987412'
p192
aS'https://www.thingiverse.com/thing:266035'
p193
aS'https://www.thingiverse.com/thing:1539582'
p194
aS'https://www.thingiverse.com/thing:6513'
p195
aS'https://www.thingiverse.com/thing:26027'
p196
aS'https://www.thingiverse.com/thing:2502733'
p197
aS'https://www.thingiverse.com/thing:26025'
p198
aS'https://www.thingiverse.com/thing:525610'
p199
aS'https://www.thingiverse.com/thing:2502931'
p200
aS'https://www.thingiverse.com/thing:2488870'
p201
aS'https://www.thingiverse.com/thing:2502427'
p202
aS'https://www.thingiverse.com/thing:1876827'
p203
aS'https://www.thingiverse.com/thing:599035'
p204
aS'https://www.thingiverse.com/thing:1527235'
p205
aS'https://www.thingiverse.com/thing:2441330'
p206
aS'https://www.thingiverse.com/thing:2109091'
p207
aS'https://www.thingiverse.com/thing:2454916'
p208
aS'https://www.thingiverse.com/thing:84866'
p209
aS'https://www.thingiverse.com/thing:1843593'
p210
aS'https://www.thingiverse.com/thing:1539675'
p211
aS'https://www.thingiverse.com/thing:164317'
p212
aS'https://www.thingiverse.com/thing:211'
p213
aS'https://www.thingiverse.com/thing:2199356'
p214
aS'https://www.thingiverse.com/thing:2471313'
p215
aS'https://www.thingiverse.com/thing:2519476'
p216
aS'https://www.thingiverse.com/thing:1246951'
p217
aS'https://www.thingiverse.com/thing:190118'
p218
aS'https://www.thingiverse.com/thing:23030'
p219
aS'https://www.thingiverse.com/thing:2120362'
p220
aS'https://www.thingiverse.com/thing:1444216'
p221
aS'https://www.thingiverse.com/thing:971775'
p222
aS'https://www.thingiverse.com/thing:199314'
p223
aS'https://www.thingiverse.com/thing:157844'
p224
aS'https://www.thingiverse.com/thing:67676'
p225
aS'https://www.thingiverse.com/thing:331609'
p226
aS'https://www.thingiverse.com/thing:2343831'
p227
aS'https://www.thingiverse.com/thing:1681442'
p228
aS'https://www.thingiverse.com/thing:2293856'
p229
aS'https://www.thingiverse.com/thing:8277'
p230
aS'https://www.thingiverse.com/thing:319413'
p231
aS'https://www.thingiverse.com/thing:116297'
p232
aS'https://www.thingiverse.com/thing:1610141'
p233
aS'https://www.thingiverse.com/thing:2484959'
p234
aS'https://www.thingiverse.com/thing:2514981'
p235
aS'https://www.thingiverse.com/thing:2514495'
p236
aS'https://www.thingiverse.com/thing:2504141'
p237
aS'https://www.thingiverse.com/thing:562790'
p238
aS'https://www.thingiverse.com/thing:2508150'
p239
aS'https://www.thingiverse.com/thing:620111'
p240
aS'https://www.thingiverse.com/thing:2333023'
p241
aS'https://www.thingiverse.com/thing:2227405'
p242
aS'https://www.thingiverse.com/thing:358031'
p243
aS'https://www.thingiverse.com/thing:2142384'
p244
aS'https://www.thingiverse.com/thing:380665'
p245
aS'https://www.thingiverse.com/thing:2511019'
p246
aS'https://www.thingiverse.com/thing:1678201'
p247
aS'https://www.thingiverse.com/thing:906951'
p248
aS'https://www.thingiverse.com/thing:1045223'
p249
aS'https://www.thingiverse.com/thing:2493095'
p250
aS'https://www.thingiverse.com/thing:1195361'
p251
aS'https://www.thingiverse.com/thing:2320216'
p252
aS'https://www.thingiverse.com/thing:2478671'
p253
aS'https://www.thingiverse.com/thing:2459624'
p254
aS'https://www.thingiverse.com/thing:975484'
p255
aS'https://www.thingiverse.com/thing:2482726'
p256
aS'https://www.thingiverse.com/thing:2474409'
p257
aS'https://www.thingiverse.com/thing:2472011'
p258
aS'https://www.thingiverse.com/thing:245922'
p259
aS'https://www.thingiverse.com/thing:331394'
p260
aS'https://www.thingiverse.com/thing:2422863'
p261
aS'https://www.thingiverse.com/thing:77183'
p262
aS'https://www.thingiverse.com/thing:767951'
p263
aS'https://www.thingiverse.com/thing:1571732'
p264
aS'https://www.thingiverse.com/thing:81034'
p265
aS'https://www.thingiverse.com/thing:28052'
p266
aS'https://www.thingiverse.com/thing:1760296'
p267
aS'https://www.thingiverse.com/thing:1728207'
p268
aS'https://www.thingiverse.com/thing:525066'
p269
aS'https://www.thingiverse.com/thing:411193'
p270
aS'https://www.thingiverse.com/thing:2515846'
p271
aS'https://www.thingiverse.com/thing:2020370'
p272
aS'https://www.thingiverse.com/thing:2481857'
p273
aS'https://www.thingiverse.com/thing:275593'
p274
aS'https://www.thingiverse.com/thing:197159'
p275
aS'https://www.thingiverse.com/thing:104972'
p276
aS'https://www.thingiverse.com/thing:697480'
p277
aS'https://www.thingiverse.com/thing:686111'
p278
aS'https://www.thingiverse.com/thing:23686'
p279
aS'https://www.thingiverse.com/thing:1209695'
p280
aS'https://www.thingiverse.com/thing:674317'
p281
aS'https://www.thingiverse.com/thing:767317'
p282
aS'https://www.thingiverse.com/thing:2239085'
p283
aS'https://www.thingiverse.com/thing:2493540'
p284
aS'https://www.thingiverse.com/thing:2425675'
p285
aS'https://www.thingiverse.com/thing:2493430'
p286
aS'https://www.thingiverse.com/thing:2473868'
p287
aS'https://www.thingiverse.com/thing:1902315'
p288
aS'https://www.thingiverse.com/thing:961084'
p289
aS'https://www.thingiverse.com/thing:2508962'
p290
aS'https://www.thingiverse.com/thing:1394549'
p291
aS'https://www.thingiverse.com/thing:37327'
p292
aS'https://www.thingiverse.com/thing:2358468'
p293
aS'https://www.thingiverse.com/thing:2509772'
p294
aS'https://www.thingiverse.com/thing:2450445'
p295
aS'https://www.thingiverse.com/thing:934299'
p296
aS'https://www.thingiverse.com/thing:2351450'
p297
aS'https://www.thingiverse.com/thing:2006850'
p298
aS'https://www.thingiverse.com/thing:653030'
p299
aS'https://www.thingiverse.com/thing:279864'
p300
aS'https://www.thingiverse.com/thing:880490'
p301
aS'https://www.thingiverse.com/thing:247393'
p302
aS'https://www.thingiverse.com/thing:703847'
p303
aS'https://www.thingiverse.com/thing:683053'
p304
aS'https://www.thingiverse.com/thing:545137'
p305
aS'https://www.thingiverse.com/thing:961881'
p306
aS'https://www.thingiverse.com/thing:1824307'
p307
aS'https://www.thingiverse.com/thing:859431'
p308
aS'https://www.thingiverse.com/thing:2476949'
p309
aS'https://www.thingiverse.com/thing:2123450'
p310
aS'https://www.thingiverse.com/thing:1601055'
p311
aS'https://www.thingiverse.com/thing:982849'
p312
aS'https://www.thingiverse.com/thing:681835'
p313
aS'https://www.thingiverse.com/thing:8754'
p314
aS'https://www.thingiverse.com/thing:8757'
p315
aS'https://www.thingiverse.com/thing:1814763'
p316
aS'https://www.thingiverse.com/thing:2501513'
p317
aS'https://www.thingiverse.com/thing:2476301'
p318
aS'https://www.thingiverse.com/thing:745879'
p319
aS'https://www.thingiverse.com/thing:2430199'
p320
aS'https://www.thingiverse.com/thing:1234793'
p321
aS'https://www.thingiverse.com/thing:1210985'
p322
aS'https://www.thingiverse.com/thing:855599'
p323
aS'https://www.thingiverse.com/thing:919380'
p324
aS'https://www.thingiverse.com/thing:2484008'
p325
aS'https://www.thingiverse.com/thing:2513787'
p326
aS'https://www.thingiverse.com/thing:2498030'
p327
aS'https://www.thingiverse.com/thing:117080'
p328
aS'https://www.thingiverse.com/thing:1820557'
p329
aS'https://www.thingiverse.com/thing:190923'
p330
aS'https://www.thingiverse.com/thing:2477945'
p331
aS'https://www.thingiverse.com/thing:714312'
p332
aS'https://www.thingiverse.com/thing:2477943'
p333
aS'https://www.thingiverse.com/thing:103582'
p334
aS'https://www.thingiverse.com/thing:46825'
p335
aS'https://www.thingiverse.com/thing:1847917'
p336
aS'https://www.thingiverse.com/thing:1477908'
p337
aS'https://www.thingiverse.com/thing:2513650'
p338
aS'https://www.thingiverse.com/thing:465349'
p339
aS'https://www.thingiverse.com/thing:2487921'
p340
aS'https://www.thingiverse.com/thing:2161940'
p341
aS'https://www.thingiverse.com/thing:2354572'
p342
aS'https://www.thingiverse.com/thing:2281259'
p343
aS'https://www.thingiverse.com/thing:931880'
p344
aS'https://www.thingiverse.com/thing:2503603'
p345
aS'https://www.thingiverse.com/thing:18218'
p346
aS'https://www.thingiverse.com/thing:1635363'
p347
aS'https://www.thingiverse.com/thing:2516156'
p348
aS'https://www.thingiverse.com/thing:2466205'
p349
aS'https://www.thingiverse.com/thing:1686825'
p350
aS'https://www.thingiverse.com/thing:539511'
p351
aS'https://www.thingiverse.com/thing:2467758'
p352
aS'https://www.thingiverse.com/thing:236330'
p353
aS'https://www.thingiverse.com/thing:392115'
p354
aS'https://www.thingiverse.com/thing:53235'
p355
aS'https://www.thingiverse.com/thing:2480490'
p356
aS'https://www.thingiverse.com/thing:1915337'
p357
aS'https://www.thingiverse.com/thing:384919'
p358
aS'https://www.thingiverse.com/thing:282242'
p359
aS'https://www.thingiverse.com/thing:873876'
p360
aS'https://www.thingiverse.com/thing:2274031'
p361
aS'https://www.thingiverse.com/thing:479949'
p362
aS'https://www.thingiverse.com/thing:2507177'
p363
aS'https://www.thingiverse.com/thing:2375916'
p364
aS'https://www.thingiverse.com/thing:2492974'
p365
aS'https://www.thingiverse.com/thing:2489864'
p366
aS'https://www.thingiverse.com/thing:2479378'
p367
aS'https://www.thingiverse.com/thing:1711215'
p368
aS'https://www.thingiverse.com/thing:2084725'
p369
aS'https://www.thingiverse.com/thing:392804'
p370
aS'https://www.thingiverse.com/thing:819755'
p371
aS'https://www.thingiverse.com/thing:2125599'
p372
aS'https://www.thingiverse.com/thing:1711106'
p373
aS'https://www.thingiverse.com/thing:644933'
p374
aS'https://www.thingiverse.com/thing:2334265'
p375
aS'https://www.thingiverse.com/thing:2471337'
p376
aS'https://www.thingiverse.com/thing:1731676'
p377
aS'https://www.thingiverse.com/thing:2078940'
p378
aS'https://www.thingiverse.com/thing:2487709'
p379
aS'https://www.thingiverse.com/thing:285347'
p380
aS'https://www.thingiverse.com/thing:383200'
p381
aS'https://www.thingiverse.com/thing:2470241'
p382
aS'https://www.thingiverse.com/thing:2478115'
p383
aS'https://www.thingiverse.com/thing:2478596'
p384
aS'https://www.thingiverse.com/thing:624625'
p385
aS'https://www.thingiverse.com/thing:2499366'
p386
aS'https://www.thingiverse.com/thing:2337209'
p387
aS'https://www.thingiverse.com/thing:2271264'
p388
aS'https://www.thingiverse.com/thing:552508'
p389
aS'https://www.thingiverse.com/thing:222399'
p390
aS'https://www.thingiverse.com/thing:140048'
p391
aS'https://www.thingiverse.com/thing:165120'
p392
aS'https://www.thingiverse.com/thing:130495'
p393
aS'https://www.thingiverse.com/thing:198236'
p394
aS'https://www.thingiverse.com/thing:2471753'
p395
aS'https://www.thingiverse.com/thing:1914642'
p396
aS'https://www.thingiverse.com/thing:1112783'
p397
aS'https://www.thingiverse.com/thing:193647'
p398
aS'https://www.thingiverse.com/thing:525454'
p399
aS'https://www.thingiverse.com/thing:655477'
p400
aS'https://www.thingiverse.com/thing:863534'
p401
aS'https://www.thingiverse.com/thing:31944'
p402
aS'https://www.thingiverse.com/thing:798076'
p403
aS'https://www.thingiverse.com/thing:2094601'
p404
aS'https://www.thingiverse.com/thing:2172252'
p405
aS'https://www.thingiverse.com/thing:927750'
p406
aS'https://www.thingiverse.com/thing:2504489'
p407
aS'https://www.thingiverse.com/thing:377523'
p408
aS'https://www.thingiverse.com/thing:2468753'
p409
aS'https://www.thingiverse.com/thing:2393679'
p410
aS'https://www.thingiverse.com/thing:2417767'
p411
aS'https://www.thingiverse.com/thing:1378163'
p412
aS'https://www.thingiverse.com/thing:1726679'
p413
aS'https://www.thingiverse.com/thing:2471866'
p414
aS'https://www.thingiverse.com/thing:381599'
p415
aS'https://www.thingiverse.com/thing:807591'
p416
aS'https://www.thingiverse.com/thing:1343181'
p417
aS'https://www.thingiverse.com/thing:712908'
p418
aS'https://www.thingiverse.com/thing:468872'
p419
aS'https://www.thingiverse.com/thing:428931'
p420
aS'https://www.thingiverse.com/thing:1879694'
p421
aS'https://www.thingiverse.com/thing:11458'
p422
aS'https://www.thingiverse.com/thing:890483'
p423
aS'https://www.thingiverse.com/thing:2494535'
p424
aS'https://www.thingiverse.com/thing:298955'
p425
aS'https://www.thingiverse.com/thing:2475125'
p426
aS'https://www.thingiverse.com/thing:2489280'
p427
aS'https://www.thingiverse.com/thing:114976'
p428
aS'https://www.thingiverse.com/thing:2142601'
p429
aS'https://www.thingiverse.com/thing:2486729'
p430
aS'https://www.thingiverse.com/thing:499177'
p431
aS'https://www.thingiverse.com/thing:2164071'
p432
aS'https://www.thingiverse.com/thing:1195229'
p433
aS'https://www.thingiverse.com/thing:2010492'
p434
aS'https://www.thingiverse.com/thing:2460371'
p435
aS'https://www.thingiverse.com/thing:2379715'
p436
aS'https://www.thingiverse.com/thing:2515784'
p437
aS'https://www.thingiverse.com/thing:2509508'
p438
aS'https://www.thingiverse.com/thing:2504021'
p439
aS'https://www.thingiverse.com/thing:826836'
p440
aS'https://www.thingiverse.com/thing:2067014'
p441
aS'https://www.thingiverse.com/thing:12880'
p442
aS'https://www.thingiverse.com/thing:158120'
p443
aS'https://www.thingiverse.com/thing:42198'
p444
aS'https://www.thingiverse.com/thing:2392646'
p445
aS'https://www.thingiverse.com/thing:1465131'
p446
aS'https://www.thingiverse.com/thing:2446882'
p447
aS'https://www.thingiverse.com/thing:216689'
p448
aS'https://www.thingiverse.com/thing:483419'
p449
aS'https://www.thingiverse.com/thing:1570'
p450
aS'https://www.thingiverse.com/thing:2514014'
p451
aS'https://www.thingiverse.com/thing:1091364'
p452
aS'https://www.thingiverse.com/thing:2458366'
p453
aS'https://www.thingiverse.com/thing:2043585'
p454
aS'https://www.thingiverse.com/thing:2493202'
p455
aS'https://www.thingiverse.com/thing:1050706'
p456
aS'https://www.thingiverse.com/thing:619550'
p457
aS'https://www.thingiverse.com/thing:437533'
p458
aS'https://www.thingiverse.com/thing:633436'
p459
aS'https://www.thingiverse.com/thing:997635'
p460
aS'https://www.thingiverse.com/thing:124033'
p461
aS'https://www.thingiverse.com/thing:12707'
p462
aS'https://www.thingiverse.com/thing:2255905'
p463
aS'https://www.thingiverse.com/thing:18939'
p464
aS'https://www.thingiverse.com/thing:1912100'
p465
aS'https://www.thingiverse.com/thing:2484766'
p466
aS'https://www.thingiverse.com/thing:2476047'
p467
aS'https://www.thingiverse.com/thing:87780'
p468
aS'https://www.thingiverse.com/thing:672654'
p469
aS'https://www.thingiverse.com/thing:2461486'
p470
aS'https://www.thingiverse.com/thing:2194552'
p471
aS'https://www.thingiverse.com/thing:32839'
p472
aS'https://www.thingiverse.com/thing:329076'
p473
aS'https://www.thingiverse.com/thing:1369643'
p474
aS'https://www.thingiverse.com/thing:27062'
p475
aS'https://www.thingiverse.com/thing:1692567'
p476
aS'https://www.thingiverse.com/thing:542914'
p477
aS'https://www.thingiverse.com/thing:32016'
p478
aS'https://www.thingiverse.com/thing:2332415'
p479
aS'https://www.thingiverse.com/thing:2499565'
p480
aS'https://www.thingiverse.com/thing:2499566'
p481
aS'https://www.thingiverse.com/thing:2507109'
p482
aS'https://www.thingiverse.com/thing:415578'
p483
aS'https://www.thingiverse.com/thing:646788'
p484
aS'https://www.thingiverse.com/thing:2031999'
p485
aS'https://www.thingiverse.com/thing:128136'
p486
aS'https://www.thingiverse.com/thing:1667138'
p487
aS'https://www.thingiverse.com/thing:260588'
p488
aS'https://www.thingiverse.com/thing:932606'
p489
aS'https://www.thingiverse.com/thing:892654'
p490
aS'https://www.thingiverse.com/thing:23251'
p491
aS'https://www.thingiverse.com/thing:2510685'
p492
aS'https://www.thingiverse.com/thing:27205'
p493
aS'https://www.thingiverse.com/thing:2477795'
p494
aS'https://www.thingiverse.com/thing:179150'
p495
aS'https://www.thingiverse.com/thing:887573'
p496
aS'https://www.thingiverse.com/thing:918864'
p497
aS'https://www.thingiverse.com/thing:2496443'
p498
aS'https://www.thingiverse.com/thing:255980'
p499
aS'https://www.thingiverse.com/thing:167043'
p500
aS'https://www.thingiverse.com/thing:13171'
p501
aS'https://www.thingiverse.com/thing:790998'
p502
aS'https://www.thingiverse.com/thing:518748'
p503
aS'https://www.thingiverse.com/thing:2435009'
p504
aS'https://www.thingiverse.com/thing:2510842'
p505
aS'https://www.thingiverse.com/thing:1012788'
p506
aS'https://www.thingiverse.com/thing:2408692'
p507
aS'https://www.thingiverse.com/thing:1748810'
p508
aS'https://www.thingiverse.com/thing:26130'
p509
aS'https://www.thingiverse.com/thing:1251975'
p510
aS'https://www.thingiverse.com/thing:2155311'
p511
aS'https://www.thingiverse.com/thing:27687'
p512
aS'https://www.thingiverse.com/thing:536050'
p513
aS'https://www.thingiverse.com/thing:525981'
p514
aS'https://www.thingiverse.com/thing:430883'
p515
aS'https://www.thingiverse.com/thing:2397219'
p516
aS'https://www.thingiverse.com/thing:2444943'
p517
aS'https://www.thingiverse.com/thing:1019228'
p518
aS'https://www.thingiverse.com/thing:1857871'
p519
aS'https://www.thingiverse.com/thing:1454971'
p520
aS'https://www.thingiverse.com/thing:2491549'
p521
aS'https://www.thingiverse.com/thing:2467340'
p522
aS'https://www.thingiverse.com/thing:2124983'
p523
aS'https://www.thingiverse.com/thing:1015238'
p524
aS'https://www.thingiverse.com/thing:1438166'
p525
aS'https://www.thingiverse.com/thing:191356'
p526
aS'https://www.thingiverse.com/thing:2410748'
p527
aS'https://www.thingiverse.com/thing:10228'
p528
aS'https://www.thingiverse.com/thing:1719128'
p529
aS'https://www.thingiverse.com/thing:887951'
p530
aS'https://www.thingiverse.com/thing:948401'
p531
aS'https://www.thingiverse.com/thing:21782'
p532
aS'https://www.thingiverse.com/thing:1430727'
p533
aS'https://www.thingiverse.com/thing:2247109'
p534
aS'https://www.thingiverse.com/thing:2454396'
p535
aS'https://www.thingiverse.com/thing:946976'
p536
aS'https://www.thingiverse.com/thing:10483'
p537
aS'https://www.thingiverse.com/thing:718726'
p538
aS'https://www.thingiverse.com/thing:1683085'
p539
aS'https://www.thingiverse.com/thing:37283'
p540
aS'https://www.thingiverse.com/thing:20415'
p541
aS'https://www.thingiverse.com/thing:2260043'
p542
aS'https://www.thingiverse.com/thing:2515759'
p543
aS'https://www.thingiverse.com/thing:205846'
p544
aS'https://www.thingiverse.com/thing:143424'
p545
aS'https://www.thingiverse.com/thing:2513722'
p546
aS'https://www.thingiverse.com/thing:2502400'
p547
aS'https://www.thingiverse.com/thing:977873'
p548
aS'https://www.thingiverse.com/thing:2055328'
p549
aS'https://www.thingiverse.com/thing:2034258'
p550
aS'https://www.thingiverse.com/thing:154463'
p551
aS'https://www.thingiverse.com/thing:1625098'
p552
aS'https://www.thingiverse.com/thing:2508020'
p553
aS'https://www.thingiverse.com/thing:2065461'
p554
aS'https://www.thingiverse.com/thing:1510145'
p555
aS'https://www.thingiverse.com/thing:2515750'
p556
aS'https://www.thingiverse.com/thing:2123857'
p557
aS'https://www.thingiverse.com/thing:150694'
p558
aS'https://www.thingiverse.com/thing:1430614'
p559
aS'https://www.thingiverse.com/thing:218026'
p560
aS'https://www.thingiverse.com/thing:497948'
p561
aS'https://www.thingiverse.com/thing:662115'
p562
aS'https://www.thingiverse.com/thing:620203'
p563
aS'https://www.thingiverse.com/thing:2443677'
p564
aS'https://www.thingiverse.com/thing:261218'
p565
aS'https://www.thingiverse.com/thing:2489190'
p566
aS'https://www.thingiverse.com/thing:2507580'
p567
aS'https://www.thingiverse.com/thing:2153661'
p568
aS'https://www.thingiverse.com/thing:2482529'
p569
aS'https://www.thingiverse.com/thing:941408'
p570
aS'https://www.thingiverse.com/thing:2507340'
p571
aS'https://www.thingiverse.com/thing:203114'
p572
aS'https://www.thingiverse.com/thing:1658338'
p573
aS'https://www.thingiverse.com/thing:2371307'
p574
aS'https://www.thingiverse.com/thing:1803225'
p575
aS'https://www.thingiverse.com/thing:2372717'
p576
aS'https://www.thingiverse.com/thing:427789'
p577
aS'https://www.thingiverse.com/thing:2034743'
p578
aS'https://www.thingiverse.com/thing:2387700'
p579
aS'https://www.thingiverse.com/thing:2479256'
p580
aS'https://www.thingiverse.com/thing:847941'
p581
aS'https://www.thingiverse.com/thing:2475207'
p582
aS'https://www.thingiverse.com/thing:2503914'
p583
aS'https://www.thingiverse.com/thing:42528'
p584
aS'https://www.thingiverse.com/thing:2108154'
p585
aS'https://www.thingiverse.com/thing:941081'
p586
aS'https://www.thingiverse.com/thing:1735985'
p587
aS'https://www.thingiverse.com/thing:2191646'
p588
aS'https://www.thingiverse.com/thing:737460'
p589
aS'https://www.thingiverse.com/thing:1535703'
p590
aS'https://www.thingiverse.com/thing:2477471'
p591
aS'https://www.thingiverse.com/thing:151461'
p592
aS'https://www.thingiverse.com/thing:30889'
p593
aS'https://www.thingiverse.com/thing:737465'
p594
aS'https://www.thingiverse.com/thing:2497353'
p595
aS'https://www.thingiverse.com/thing:358494'
p596
aS'https://www.thingiverse.com/thing:993933'
p597
aS'https://www.thingiverse.com/thing:34017'
p598
aS'https://www.thingiverse.com/thing:607518'
p599
aS'https://www.thingiverse.com/thing:570288'
p600
aS'https://www.thingiverse.com/thing:31284'
p601
aS'https://www.thingiverse.com/thing:254133'
p602
aS'https://www.thingiverse.com/thing:274570'
p603
aS'https://www.thingiverse.com/thing:2482256'
p604
aS'https://www.thingiverse.com/thing:2475110'
p605
aS'https://www.thingiverse.com/thing:628929'
p606
aS'https://www.thingiverse.com/thing:2505292'
p607
aS'https://www.thingiverse.com/thing:2284125'
p608
aS'https://www.thingiverse.com/thing:38159'
p609
aS'https://www.thingiverse.com/thing:1728667'
p610
aS'https://www.thingiverse.com/thing:87465'
p611
aS'https://www.thingiverse.com/thing:2450368'
p612
aS'https://www.thingiverse.com/thing:2475065'
p613
aS'https://www.thingiverse.com/thing:42673'
p614
aS'https://www.thingiverse.com/thing:1867308'
p615
aS'https://www.thingiverse.com/thing:51489'
p616
aS'https://www.thingiverse.com/thing:158069'
p617
aS'https://www.thingiverse.com/thing:2482380'
p618
aS'https://www.thingiverse.com/thing:2508176'
p619
aS'https://www.thingiverse.com/thing:633534'
p620
aS'https://www.thingiverse.com/thing:2477814'
p621
aS'https://www.thingiverse.com/thing:1313387'
p622
aS'https://www.thingiverse.com/thing:2461569'
p623
aS'https://www.thingiverse.com/thing:832077'
p624
aS'https://www.thingiverse.com/thing:1060363'
p625
aS'https://www.thingiverse.com/thing:2191603'
p626
aS'https://www.thingiverse.com/thing:896767'
p627
aS'https://www.thingiverse.com/thing:200571'
p628
aS'https://www.thingiverse.com/thing:2319872'
p629
aS'https://www.thingiverse.com/thing:27053'
p630
aS'https://www.thingiverse.com/thing:2415816'
p631
aS'https://www.thingiverse.com/thing:2481274'
p632
aS'https://www.thingiverse.com/thing:592316'
p633
aS'https://www.thingiverse.com/thing:1768185'
p634
aS'https://www.thingiverse.com/thing:2499514'
p635
aS'https://www.thingiverse.com/thing:2481387'
p636
aS'https://www.thingiverse.com/thing:442571'
p637
aS'https://www.thingiverse.com/thing:1756637'
p638
aS'https://www.thingiverse.com/thing:17612'
p639
aS'https://www.thingiverse.com/thing:2182924'
p640
aS'https://www.thingiverse.com/thing:1991111'
p641
aS'https://www.thingiverse.com/thing:584714'
p642
aS'https://www.thingiverse.com/thing:1743616'
p643
aS'https://www.thingiverse.com/thing:2476782'
p644
aS'https://www.thingiverse.com/thing:1655546'
p645
aS'https://www.thingiverse.com/thing:158240'
p646
aS'https://www.thingiverse.com/thing:633081'
p647
aS'https://www.thingiverse.com/thing:2503442'
p648
aS'https://www.thingiverse.com/thing:969088'
p649
aS'https://www.thingiverse.com/thing:2476498'
p650
aS'https://www.thingiverse.com/thing:826065'
p651
aS'https://www.thingiverse.com/thing:2375274'
p652
aS'https://www.thingiverse.com/thing:768305'
p653
aS'https://www.thingiverse.com/thing:2425462'
p654
aS'https://www.thingiverse.com/thing:17105'
p655
aS'https://www.thingiverse.com/thing:1852766'
p656
aS'https://www.thingiverse.com/thing:2517319'
p657
aS'https://www.thingiverse.com/thing:805143'
p658
aS'https://www.thingiverse.com/thing:1397964'
p659
aS'https://www.thingiverse.com/thing:1871829'
p660
aS'https://www.thingiverse.com/thing:633883'
p661
aS'https://www.thingiverse.com/thing:186372'
p662
aS'https://www.thingiverse.com/thing:27233'
p663
aS'https://www.thingiverse.com/thing:265529'
p664
aS'https://www.thingiverse.com/thing:584405'
p665
aS'https://www.thingiverse.com/thing:390713'
p666
aS'https://www.thingiverse.com/thing:2192118'
p667
aS'https://www.thingiverse.com/thing:1946126'
p668
aS'https://www.thingiverse.com/thing:2490820'
p669
aS'https://www.thingiverse.com/thing:682146'
p670
aS'https://www.thingiverse.com/thing:784917'
p671
aS'https://www.thingiverse.com/thing:8796'
p672
aS'https://www.thingiverse.com/thing:998999'
p673
aS'https://www.thingiverse.com/thing:18479'
p674
aS'https://www.thingiverse.com/thing:2502667'
p675
aS'https://www.thingiverse.com/thing:2436848'
p676
aS'https://www.thingiverse.com/thing:380987'
p677
aS'https://www.thingiverse.com/thing:2484447'
p678
aS'https://www.thingiverse.com/thing:1239079'
p679
aS'https://www.thingiverse.com/thing:1362673'
p680
aS'https://www.thingiverse.com/thing:1126507'
p681
aS'https://www.thingiverse.com/thing:660431'
p682
aS'https://www.thingiverse.com/thing:2217927'
p683
aS'https://www.thingiverse.com/thing:2495075'
p684
aS'https://www.thingiverse.com/thing:430184'
p685
aS'https://www.thingiverse.com/thing:2467601'
p686
aS'https://www.thingiverse.com/thing:1943731'
p687
aS'https://www.thingiverse.com/thing:2490170'
p688
aS'https://www.thingiverse.com/thing:312971'
p689
aS'https://www.thingiverse.com/thing:2134321'
p690
aS'https://www.thingiverse.com/thing:1780556'
p691
aS'https://www.thingiverse.com/thing:2500937'
p692
aS'https://www.thingiverse.com/thing:290898'
p693
aS'https://www.thingiverse.com/thing:384599'
p694
aS'https://www.thingiverse.com/thing:87250'
p695
aS'https://www.thingiverse.com/thing:384613'
p696
aS'https://www.thingiverse.com/thing:13588'
p697
aS'https://www.thingiverse.com/thing:1762553'
p698
aS'https://www.thingiverse.com/thing:996899'
p699
aS'https://www.thingiverse.com/thing:926578'
p700
aS'https://www.thingiverse.com/thing:1438795'
p701
aS'https://www.thingiverse.com/thing:610934'
p702
aS'https://www.thingiverse.com/thing:2114390'
p703
aS'https://www.thingiverse.com/thing:2420814'
p704
aS'https://www.thingiverse.com/thing:509082'
p705
aS'https://www.thingiverse.com/thing:416867'
p706
aS'https://www.thingiverse.com/thing:232248'
p707
aS'https://www.thingiverse.com/thing:515822'
p708
aS'https://www.thingiverse.com/thing:223393'
p709
aS'https://www.thingiverse.com/thing:1904115'
p710
aS'https://www.thingiverse.com/thing:446151'
p711
aS'https://www.thingiverse.com/thing:668262'
p712
aS'https://www.thingiverse.com/thing:2172477'
p713
aS'https://www.thingiverse.com/thing:258112'
p714
aS'https://www.thingiverse.com/thing:1386439'
p715
aS'https://www.thingiverse.com/thing:243981'
p716
aS'https://www.thingiverse.com/thing:2118713'
p717
aS'https://www.thingiverse.com/thing:17916'
p718
aS'https://www.thingiverse.com/thing:134066'
p719
aS'https://www.thingiverse.com/thing:951687'
p720
aS'https://www.thingiverse.com/thing:1430577'
p721
aS'https://www.thingiverse.com/thing:2362103'
p722
aS'https://www.thingiverse.com/thing:1163973'
p723
aS'https://www.thingiverse.com/thing:2500229'
p724
aS'https://www.thingiverse.com/thing:1963066'
p725
aS'https://www.thingiverse.com/thing:421886'
p726
aS'https://www.thingiverse.com/thing:427024'
p727
aS'https://www.thingiverse.com/thing:2105202'
p728
aS'https://www.thingiverse.com/thing:427155'
p729
aS'https://www.thingiverse.com/thing:2457493'
p730
aS'https://www.thingiverse.com/thing:975920'
p731
aS'https://www.thingiverse.com/thing:702470'
p732
aS'https://www.thingiverse.com/thing:2499237'
p733
aS'https://www.thingiverse.com/thing:1248679'
p734
aS'https://www.thingiverse.com/thing:2483732'
p735
aS'https://www.thingiverse.com/thing:1598460'
p736
aS'https://www.thingiverse.com/thing:194864'
p737
aS'https://www.thingiverse.com/thing:331035'
p738
aS'https://www.thingiverse.com/thing:2468739'
p739
aS'https://www.thingiverse.com/thing:2483932'
p740
aS'https://www.thingiverse.com/thing:2299953'
p741
aS'https://www.thingiverse.com/thing:1962426'
p742
aS'https://www.thingiverse.com/thing:548230'
p743
aS'https://www.thingiverse.com/thing:1851115'
p744
aS'https://www.thingiverse.com/thing:468651'
p745
aS'https://www.thingiverse.com/thing:1277483'
p746
aS'https://www.thingiverse.com/thing:43591'
p747
aS'https://www.thingiverse.com/thing:24308'
p748
aS'https://www.thingiverse.com/thing:984793'
p749
aS'https://www.thingiverse.com/thing:389217'
p750
aS'https://www.thingiverse.com/thing:2486387'
p751
aS'https://www.thingiverse.com/thing:1267209'
p752
aS'https://www.thingiverse.com/thing:790533'
p753
aS'https://www.thingiverse.com/thing:2478314'
p754
aS'https://www.thingiverse.com/thing:1963083'
p755
aS'https://www.thingiverse.com/thing:1732292'
p756
aS'https://www.thingiverse.com/thing:84075'
p757
aS'https://www.thingiverse.com/thing:629338'
p758
aS'https://www.thingiverse.com/thing:2493688'
p759
aS'https://www.thingiverse.com/thing:44328'
p760
aS'https://www.thingiverse.com/thing:900071'
p761
aS'https://www.thingiverse.com/thing:2493040'
p762
aS'https://www.thingiverse.com/thing:755186'
p763
aS'https://www.thingiverse.com/thing:950426'
p764
aS'https://www.thingiverse.com/thing:2277209'
p765
aS'https://www.thingiverse.com/thing:2484557'
p766
aS'https://www.thingiverse.com/thing:872684'
p767
aS'https://www.thingiverse.com/thing:2513683'
p768
aS'https://www.thingiverse.com/thing:487964'
p769
aS'https://www.thingiverse.com/thing:51018'
p770
aS'https://www.thingiverse.com/thing:2493504'
p771
aS'https://www.thingiverse.com/thing:1249929'
p772
aS'https://www.thingiverse.com/thing:2488811'
p773
aS'https://www.thingiverse.com/thing:2479682'
p774
aS'https://www.thingiverse.com/thing:2509560'
p775
aS'https://www.thingiverse.com/thing:2482604'
p776
aS'https://www.thingiverse.com/thing:494084'
p777
aS'https://www.thingiverse.com/thing:1598042'
p778
aS'https://www.thingiverse.com/thing:2143936'
p779
aS'https://www.thingiverse.com/thing:243278'
p780
aS'https://www.thingiverse.com/thing:742415'
p781
aS'https://www.thingiverse.com/thing:2485495'
p782
aS'https://www.thingiverse.com/thing:2493596'
p783
aS'https://www.thingiverse.com/thing:2266700'
p784
aS'https://www.thingiverse.com/thing:697635'
p785
aS'https://www.thingiverse.com/thing:1608878'
p786
aS'https://www.thingiverse.com/thing:34404'
p787
aS'https://www.thingiverse.com/thing:283304'
p788
aS'https://www.thingiverse.com/thing:123252'
p789
aS'https://www.thingiverse.com/thing:996398'
p790
aS'https://www.thingiverse.com/thing:882629'
p791
aS'https://www.thingiverse.com/thing:2493661'
p792
aS'https://www.thingiverse.com/thing:411163'
p793
aS'https://www.thingiverse.com/thing:1873213'
p794
aS'https://www.thingiverse.com/thing:2510197'
p795
aS'https://www.thingiverse.com/thing:2134864'
p796
aS'https://www.thingiverse.com/thing:2515963'
p797
aS'https://www.thingiverse.com/thing:792576'
p798
aS'https://www.thingiverse.com/thing:2500162'
p799
aS'https://www.thingiverse.com/thing:809003'
p800
aS'https://www.thingiverse.com/thing:479222'
p801
aS'https://www.thingiverse.com/thing:2459900'
p802
aS'https://www.thingiverse.com/thing:2484701'
p803
aS'https://www.thingiverse.com/thing:776671'
p804
aS'https://www.thingiverse.com/thing:2472106'
p805
aS'https://www.thingiverse.com/thing:2032190'
p806
aS'https://www.thingiverse.com/thing:296260'
p807
aS'https://www.thingiverse.com/thing:2218911'
p808
aS'https://www.thingiverse.com/thing:945822'
p809
aS'https://www.thingiverse.com/thing:603334'
p810
aS'https://www.thingiverse.com/thing:1155831'
p811
aS'https://www.thingiverse.com/thing:2403756'
p812
aS'https://www.thingiverse.com/thing:2514962'
p813
aS'https://www.thingiverse.com/thing:2494061'
p814
aS'https://www.thingiverse.com/thing:1606054'
p815
aS'https://www.thingiverse.com/thing:520131'
p816
aS'https://www.thingiverse.com/thing:87635'
p817
aS'https://www.thingiverse.com/thing:2067818'
p818
aS'https://www.thingiverse.com/thing:2441531'
p819
aS'https://www.thingiverse.com/thing:128112'
p820
aS'https://www.thingiverse.com/thing:725914'
p821
aS'https://www.thingiverse.com/thing:2464435'
p822
aS'https://www.thingiverse.com/thing:1001312'
p823
aS'https://www.thingiverse.com/thing:2477774'
p824
aS'https://www.thingiverse.com/thing:2480025'
p825
aS'https://www.thingiverse.com/thing:2278247'
p826
aS'https://www.thingiverse.com/thing:478806'
p827
aS'https://www.thingiverse.com/thing:2476378'
p828
aS'https://www.thingiverse.com/thing:731086'
p829
aS'https://www.thingiverse.com/thing:914521'
p830
aS'https://www.thingiverse.com/thing:965212'
p831
aS'https://www.thingiverse.com/thing:1212665'
p832
aS'https://www.thingiverse.com/thing:2477996'
p833
aS'https://www.thingiverse.com/thing:2499433'
p834
aS'https://www.thingiverse.com/thing:2499437'
p835
aS'https://www.thingiverse.com/thing:638685'
p836
aS'https://www.thingiverse.com/thing:1538383'
p837
aS'https://www.thingiverse.com/thing:265761'
p838
aS'https://www.thingiverse.com/thing:335825'
p839
aS'https://www.thingiverse.com/thing:1372824'
p840
aS'https://www.thingiverse.com/thing:242639'
p841
aS'https://www.thingiverse.com/thing:1439302'
p842
aS'https://www.thingiverse.com/thing:11836'
p843
aS'https://www.thingiverse.com/thing:824415'
p844
aS'https://www.thingiverse.com/thing:324433'
p845
aS'https://www.thingiverse.com/thing:2480288'
p846
aS'https://www.thingiverse.com/thing:523558'
p847
aS'https://www.thingiverse.com/thing:28627'
p848
aS'https://www.thingiverse.com/thing:1669452'
p849
aS'https://www.thingiverse.com/thing:208399'
p850
aS'https://www.thingiverse.com/thing:1362048'
p851
aS'https://www.thingiverse.com/thing:649181'
p852
aS'https://www.thingiverse.com/thing:1753445'
p853
aS'https://www.thingiverse.com/thing:298579'
p854
aS'https://www.thingiverse.com/thing:2381545'
p855
aS'https://www.thingiverse.com/thing:26979'
p856
aS'https://www.thingiverse.com/thing:902569'
p857
aS'https://www.thingiverse.com/thing:262476'
p858
aS'https://www.thingiverse.com/thing:2497970'
p859
aS'https://www.thingiverse.com/thing:2430122'
p860
aS'https://www.thingiverse.com/thing:958541'
p861
aS'https://www.thingiverse.com/thing:951361'
p862
aS'https://www.thingiverse.com/thing:645328'
p863
aS'https://www.thingiverse.com/thing:2479692'
p864
aS'https://www.thingiverse.com/thing:98669'
p865
aS'https://www.thingiverse.com/thing:2410725'
p866
aS'https://www.thingiverse.com/thing:2490966'
p867
aS'https://www.thingiverse.com/thing:725138'
p868
aS'https://www.thingiverse.com/thing:40903'
p869
aS'https://www.thingiverse.com/thing:2419427'
p870
aS'https://www.thingiverse.com/thing:2488634'
p871
aS'https://www.thingiverse.com/thing:948565'
p872
aS'https://www.thingiverse.com/thing:2480607'
p873
aS'https://www.thingiverse.com/thing:652851'
p874
aS'https://www.thingiverse.com/thing:774631'
p875
aS'https://www.thingiverse.com/thing:2039503'
p876
aS'https://www.thingiverse.com/thing:509659'
p877
aS'https://www.thingiverse.com/thing:2491366'
p878
aS'https://www.thingiverse.com/thing:2491363'
p879
aS'https://www.thingiverse.com/thing:2496246'
p880
aS'https://www.thingiverse.com/thing:446787'
p881
aS'https://www.thingiverse.com/thing:205869'
p882
aS'https://www.thingiverse.com/thing:2288550'
p883
aS'https://www.thingiverse.com/thing:781367'
p884
aS'https://www.thingiverse.com/thing:2470293'
p885
aS'https://www.thingiverse.com/thing:2507108'
p886
aS'https://www.thingiverse.com/thing:261462'
p887
aS'https://www.thingiverse.com/thing:2441788'
p888
aS'https://www.thingiverse.com/thing:2507100'
p889
aS'https://www.thingiverse.com/thing:966908'
p890
aS'https://www.thingiverse.com/thing:1826081'
p891
aS'https://www.thingiverse.com/thing:300719'
p892
aS'https://www.thingiverse.com/thing:569589'
p893
aS'https://www.thingiverse.com/thing:2260066'
p894
aS'https://www.thingiverse.com/thing:2013199'
p895
aS'https://www.thingiverse.com/thing:2381619'
p896
aS'https://www.thingiverse.com/thing:979142'
p897
aS'https://www.thingiverse.com/thing:2518232'
p898
aS'https://www.thingiverse.com/thing:2246677'
p899
aS'https://www.thingiverse.com/thing:2496330'
p900
aS'https://www.thingiverse.com/thing:2473179'
p901
aS'https://www.thingiverse.com/thing:2417829'
p902
aS'https://www.thingiverse.com/thing:2416805'
p903
aS'https://www.thingiverse.com/thing:752379'
p904
aS'https://www.thingiverse.com/thing:961487'
p905
aS'https://www.thingiverse.com/thing:1038339'
p906
aS'https://www.thingiverse.com/thing:2504453'
p907
aS'https://www.thingiverse.com/thing:2478522'
p908
aS'https://www.thingiverse.com/thing:259899'
p909
aS'https://www.thingiverse.com/thing:2478529'
p910
aS'https://www.thingiverse.com/thing:2511493'
p911
aS'https://www.thingiverse.com/thing:2483253'
p912
aS'https://www.thingiverse.com/thing:37776'
p913
aS'https://www.thingiverse.com/thing:1259505'
p914
aS'https://www.thingiverse.com/thing:42637'
p915
aS'https://www.thingiverse.com/thing:336108'
p916
aS'https://www.thingiverse.com/thing:237692'
p917
aS'https://www.thingiverse.com/thing:277394'
p918
aS'https://www.thingiverse.com/thing:971564'
p919
aS'https://www.thingiverse.com/thing:620846'
p920
aS'https://www.thingiverse.com/thing:497124'
p921
aS'https://www.thingiverse.com/thing:1172838'
p922
aS'https://www.thingiverse.com/thing:312717'
p923
aS'https://www.thingiverse.com/thing:43871'
p924
aS'https://www.thingiverse.com/thing:910984'
p925
aS'https://www.thingiverse.com/thing:2482478'
p926
aS'https://www.thingiverse.com/thing:2482479'
p927
aS'https://www.thingiverse.com/thing:189264'
p928
aS'https://www.thingiverse.com/thing:298188'
p929
aS'https://www.thingiverse.com/thing:920376'
p930
aS'https://www.thingiverse.com/thing:2476668'
p931
aS'https://www.thingiverse.com/thing:953811'
p932
aS'https://www.thingiverse.com/thing:2227534'
p933
aS'https://www.thingiverse.com/thing:140343'
p934
aS'https://www.thingiverse.com/thing:2448907'
p935
aS'https://www.thingiverse.com/thing:1905998'
p936
aS'https://www.thingiverse.com/thing:1005481'
p937
aS'https://www.thingiverse.com/thing:1457449'
p938
aS'https://www.thingiverse.com/thing:95635'
p939
aS'https://www.thingiverse.com/thing:2506760'
p940
aS'https://www.thingiverse.com/thing:2442056'
p941
aS'https://www.thingiverse.com/thing:845449'
p942
aS'https://www.thingiverse.com/thing:2353122'
p943
aS'https://www.thingiverse.com/thing:993883'
p944
aS'https://www.thingiverse.com/thing:1782234'
p945
aS'https://www.thingiverse.com/thing:1809568'
p946
aS'https://www.thingiverse.com/thing:29876'
p947
aS'https://www.thingiverse.com/thing:703483'
p948
aS'https://www.thingiverse.com/thing:330888'
p949
aS'https://www.thingiverse.com/thing:2508409'
p950
aS'https://www.thingiverse.com/thing:582221'
p951
aS'https://www.thingiverse.com/thing:911735'
p952
aS'https://www.thingiverse.com/thing:1002819'
p953
aS'https://www.thingiverse.com/thing:2468073'
p954
aS'https://www.thingiverse.com/thing:2335797'
p955
aS'https://www.thingiverse.com/thing:583351'
p956
aS'https://www.thingiverse.com/thing:2464509'
p957
aS'https://www.thingiverse.com/thing:550604'
p958
aS'https://www.thingiverse.com/thing:2500179'
p959
aS'https://www.thingiverse.com/thing:45994'
p960
aS'https://www.thingiverse.com/thing:1762997'
p961
aS'https://www.thingiverse.com/thing:2134970'
p962
aS'https://www.thingiverse.com/thing:2427967'
p963
aS'https://www.thingiverse.com/thing:2128429'
p964
aS'https://www.thingiverse.com/thing:42090'
p965
aS'https://www.thingiverse.com/thing:202774'
p966
aS'https://www.thingiverse.com/thing:1003471'
p967
aS'https://www.thingiverse.com/thing:1933208'
p968
aS'https://www.thingiverse.com/thing:2514862'
p969
aS'https://www.thingiverse.com/thing:271736'
p970
aS'https://www.thingiverse.com/thing:1629341'
p971
aS'https://www.thingiverse.com/thing:105267'
p972
aS'https://www.thingiverse.com/thing:2439359'
p973
aS'https://www.thingiverse.com/thing:124175'
p974
aS'https://www.thingiverse.com/thing:1230141'
p975
aS'https://www.thingiverse.com/thing:23464'
p976
aS'https://www.thingiverse.com/thing:124774'
p977
aS'https://www.thingiverse.com/thing:1520678'
p978
aS'https://www.thingiverse.com/thing:1746135'
p979
aS'https://www.thingiverse.com/thing:2503963'
p980
aS'https://www.thingiverse.com/thing:2090893'
p981
aS'https://www.thingiverse.com/thing:1813105'
p982
aS'https://www.thingiverse.com/thing:908062'
p983
aS'https://www.thingiverse.com/thing:2093991'
p984
aS'https://www.thingiverse.com/thing:612709'
p985
aS'https://www.thingiverse.com/thing:18672'
p986
aS'https://www.thingiverse.com/thing:676630'
p987
aS'https://www.thingiverse.com/thing:64168'
p988
aS'https://www.thingiverse.com/thing:264017'
p989
aS'https://www.thingiverse.com/thing:2490370'
p990
aS'https://www.thingiverse.com/thing:399474'
p991
aS'https://www.thingiverse.com/thing:1081075'
p992
aS'https://www.thingiverse.com/thing:68620'
p993
aS'https://www.thingiverse.com/thing:911205'
p994
aS'https://www.thingiverse.com/thing:710438'
p995
aS'https://www.thingiverse.com/thing:2476342'
p996
aS'https://www.thingiverse.com/thing:1858435'
p997
aS'https://www.thingiverse.com/thing:47372'
p998
aS'https://www.thingiverse.com/thing:2470998'
p999
aS'https://www.thingiverse.com/thing:2123233'
p1000
aS'https://www.thingiverse.com/thing:862724'
p1001
aS'https://www.thingiverse.com/thing:510957'
p1002
aS'https://www.thingiverse.com/thing:1428253'
p1003
aS'https://www.thingiverse.com/thing:1325680'
p1004
aS'https://www.thingiverse.com/thing:452651'
p1005
aS'https://www.thingiverse.com/thing:129789'
p1006
aS'https://www.thingiverse.com/thing:883182'
p1007
aS'https://www.thingiverse.com/thing:2477697'
p1008
aS'https://www.thingiverse.com/thing:2482631'
p1009
aS'https://www.thingiverse.com/thing:146634'
p1010
aS'https://www.thingiverse.com/thing:2498101'
p1011
aS'https://www.thingiverse.com/thing:2210430'
p1012
aS'https://www.thingiverse.com/thing:2480566'
p1013
aS'https://www.thingiverse.com/thing:1462353'
p1014
aS'https://www.thingiverse.com/thing:2472938'
p1015
aS'https://www.thingiverse.com/thing:2517421'
p1016
aS'https://www.thingiverse.com/thing:2499228'
p1017
aS'https://www.thingiverse.com/thing:2512106'
p1018
aS'https://www.thingiverse.com/thing:234512'
p1019
aS'https://www.thingiverse.com/thing:2467374'
p1020
aS'https://www.thingiverse.com/thing:1902158'
p1021
aS'https://www.thingiverse.com/thing:289650'
p1022
aS'https://www.thingiverse.com/thing:641'
p1023
aS'https://www.thingiverse.com/thing:342198'
p1024
aS'https://www.thingiverse.com/thing:1575432'
p1025
aS'https://www.thingiverse.com/thing:27560'
p1026
aS'https://www.thingiverse.com/thing:2483013'
p1027
aS'https://www.thingiverse.com/thing:525796'
p1028
aS'https://www.thingiverse.com/thing:290566'
p1029
aS'https://www.thingiverse.com/thing:2499749'
p1030
aS'https://www.thingiverse.com/thing:2477180'
p1031
aS'https://www.thingiverse.com/thing:892442'
p1032
aS'https://www.thingiverse.com/thing:232464'
p1033
aS'https://www.thingiverse.com/thing:1746663'
p1034
aS'https://www.thingiverse.com/thing:649284'
p1035
aS'https://www.thingiverse.com/thing:156026'
p1036
aS'https://www.thingiverse.com/thing:478336'
p1037
aS'https://www.thingiverse.com/thing:2444687'
p1038
aS'https://www.thingiverse.com/thing:1900579'
p1039
aS'https://www.thingiverse.com/thing:2057912'
p1040
aS'https://www.thingiverse.com/thing:2519651'
p1041
aS'https://www.thingiverse.com/thing:188598'
p1042
aS'https://www.thingiverse.com/thing:6432'
p1043
aS'https://www.thingiverse.com/thing:2491221'
p1044
aS'https://www.thingiverse.com/thing:976539'
p1045
aS'https://www.thingiverse.com/thing:586739'
p1046
aS'https://www.thingiverse.com/thing:618654'
p1047
aS'https://www.thingiverse.com/thing:2471575'
p1048
aS'https://www.thingiverse.com/thing:1492411'
p1049
aS'https://www.thingiverse.com/thing:329436'
p1050
aS'https://www.thingiverse.com/thing:70549'
p1051
aS'https://www.thingiverse.com/thing:1009253'
p1052
aS'https://www.thingiverse.com/thing:2323268'
p1053
aS'https://www.thingiverse.com/thing:2389960'
p1054
aS'https://www.thingiverse.com/thing:45234'
p1055
aS'https://www.thingiverse.com/thing:2408748'
p1056
aS'https://www.thingiverse.com/thing:2487347'
p1057
aS'https://www.thingiverse.com/thing:1002335'
p1058
aS'https://www.thingiverse.com/thing:195604'
p1059
aS'https://www.thingiverse.com/thing:1598200'
p1060
aS'https://www.thingiverse.com/thing:2319085'
p1061
aS'https://www.thingiverse.com/thing:319339'
p1062
aS'https://www.thingiverse.com/thing:2516642'
p1063
aS'https://www.thingiverse.com/thing:979847'
p1064
aS'https://www.thingiverse.com/thing:48034'
p1065
aS'https://www.thingiverse.com/thing:1316742'
p1066
aS'https://www.thingiverse.com/thing:2173984'
p1067
aS'https://www.thingiverse.com/thing:370051'
p1068
aS'https://www.thingiverse.com/thing:2084736'
p1069
aS'https://www.thingiverse.com/thing:1496797'
p1070
aS'https://www.thingiverse.com/thing:21357'
p1071
aS'https://www.thingiverse.com/thing:996804'
p1072
aS'https://www.thingiverse.com/thing:509046'
p1073
aS'https://www.thingiverse.com/thing:2451310'
p1074
aS'https://www.thingiverse.com/thing:2417835'
p1075
aS'https://www.thingiverse.com/thing:1274'
p1076
aS'https://www.thingiverse.com/thing:1706929'
p1077
aS'https://www.thingiverse.com/thing:2350830'
p1078
aS'https://www.thingiverse.com/thing:769727'
p1079
aS'https://www.thingiverse.com/thing:137248'
p1080
aS'https://www.thingiverse.com/thing:323038'
p1081
aS'https://www.thingiverse.com/thing:245202'
p1082
aS'https://www.thingiverse.com/thing:2121316'
p1083
aS'https://www.thingiverse.com/thing:2063466'
p1084
aS'https://www.thingiverse.com/thing:1610009'
p1085
aS'https://www.thingiverse.com/thing:2374910'
p1086
aS'https://www.thingiverse.com/thing:238191'
p1087
aS'https://www.thingiverse.com/thing:327393'
p1088
aS'https://www.thingiverse.com/thing:597267'
p1089
aS'https://www.thingiverse.com/thing:373367'
p1090
aS'https://www.thingiverse.com/thing:153807'
p1091
aS'https://www.thingiverse.com/thing:15087'
p1092
aS'https://www.thingiverse.com/thing:2489000'
p1093
aS'https://www.thingiverse.com/thing:274054'
p1094
aS'https://www.thingiverse.com/thing:137623'
p1095
aS'https://www.thingiverse.com/thing:1159921'
p1096
aS'https://www.thingiverse.com/thing:1702891'
p1097
aS'https://www.thingiverse.com/thing:126567'
p1098
aS'https://www.thingiverse.com/thing:94738'
p1099
aS'https://www.thingiverse.com/thing:939266'
p1100
aS'https://www.thingiverse.com/thing:12516'
p1101
aS'https://www.thingiverse.com/thing:2328449'
p1102
aS'https://www.thingiverse.com/thing:1479176'
p1103
aS'https://www.thingiverse.com/thing:2508898'
p1104
aS'https://www.thingiverse.com/thing:964321'
p1105
aS'https://www.thingiverse.com/thing:1684109'
p1106
aS'https://www.thingiverse.com/thing:796240'
p1107
aS'https://www.thingiverse.com/thing:2156108'
p1108
aS'https://www.thingiverse.com/thing:2042095'
p1109
aS'https://www.thingiverse.com/thing:1229473'
p1110
aS'https://www.thingiverse.com/thing:5573'
p1111
aS'https://www.thingiverse.com/thing:2502196'
p1112
aS'https://www.thingiverse.com/thing:1094889'
p1113
aS'https://www.thingiverse.com/thing:2486619'
p1114
aS'https://www.thingiverse.com/thing:14104'
p1115
aS'https://www.thingiverse.com/thing:1228276'
p1116
aS'https://www.thingiverse.com/thing:56147'
p1117
aS'https://www.thingiverse.com/thing:30831'
p1118
aS'https://www.thingiverse.com/thing:2494591'
p1119
aS'https://www.thingiverse.com/thing:2240542'
p1120
aS'https://www.thingiverse.com/thing:2360999'
p1121
aS'https://www.thingiverse.com/thing:1377955'
p1122
aS'https://www.thingiverse.com/thing:24451'
p1123
aS'https://www.thingiverse.com/thing:2447107'
p1124
aS'https://www.thingiverse.com/thing:12208'
p1125
aS'https://www.thingiverse.com/thing:2000216'
p1126
aS'https://www.thingiverse.com/thing:2443556'
p1127
aS'https://www.thingiverse.com/thing:2437350'
p1128
aS'https://www.thingiverse.com/thing:1609323'
p1129
aS'https://www.thingiverse.com/thing:175150'
p1130
aS'https://www.thingiverse.com/thing:1468073'
p1131
aS'https://www.thingiverse.com/thing:2475702'
p1132
aS'https://www.thingiverse.com/thing:229667'
p1133
aS'https://www.thingiverse.com/thing:1009659'
p1134
aS'https://www.thingiverse.com/thing:2514346'
p1135
aS'https://www.thingiverse.com/thing:451292'
p1136
aS'https://www.thingiverse.com/thing:2203942'
p1137
aS'https://www.thingiverse.com/thing:1740538'
p1138
aS'https://www.thingiverse.com/thing:92172'
p1139
aS'https://www.thingiverse.com/thing:238435'
p1140
aS'https://www.thingiverse.com/thing:19104'
p1141
aS'https://www.thingiverse.com/thing:2317212'
p1142
aS'https://www.thingiverse.com/thing:22858'
p1143
aS'https://www.thingiverse.com/thing:362357'
p1144
aS'https://www.thingiverse.com/thing:1048858'
p1145
aS'https://www.thingiverse.com/thing:1639567'
p1146
aS'https://www.thingiverse.com/thing:2292048'
p1147
aS'https://www.thingiverse.com/thing:817759'
p1148
aS'https://www.thingiverse.com/thing:372103'
p1149
aS'https://www.thingiverse.com/thing:35796'
p1150
aS'https://www.thingiverse.com/thing:2492963'
p1151
aS'https://www.thingiverse.com/thing:191974'
p1152
aS'https://www.thingiverse.com/thing:2296317'
p1153
aS'https://www.thingiverse.com/thing:2464419'
p1154
aS'https://www.thingiverse.com/thing:1016119'
p1155
aS'https://www.thingiverse.com/thing:69729'
p1156
aS'https://www.thingiverse.com/thing:2477756'
p1157
aS'https://www.thingiverse.com/thing:897805'
p1158
aS'https://www.thingiverse.com/thing:2508751'
p1159
aS'https://www.thingiverse.com/thing:2481024'
p1160
aS'https://www.thingiverse.com/thing:2438365'
p1161
aS'https://www.thingiverse.com/thing:2103227'
p1162
aS'https://www.thingiverse.com/thing:2265132'
p1163
aS'https://www.thingiverse.com/thing:2479977'
p1164
aS'https://www.thingiverse.com/thing:489709'
p1165
aS'https://www.thingiverse.com/thing:2404307'
p1166
aS'https://www.thingiverse.com/thing:952783'
p1167
aS'https://www.thingiverse.com/thing:235242'
p1168
aS'https://www.thingiverse.com/thing:1234509'
p1169
aS'https://www.thingiverse.com/thing:2494131'
p1170
aS'https://www.thingiverse.com/thing:2425789'
p1171
aS'https://www.thingiverse.com/thing:2050229'
p1172
aS'https://www.thingiverse.com/thing:32274'
p1173
aS'https://www.thingiverse.com/thing:2510555'
p1174
aS'https://www.thingiverse.com/thing:2510886'
p1175
aS'https://www.thingiverse.com/thing:2282548'
p1176
aS'https://www.thingiverse.com/thing:2352440'
p1177
aS'https://www.thingiverse.com/thing:2490290'
p1178
aS'https://www.thingiverse.com/thing:1957770'
p1179
aS'https://www.thingiverse.com/thing:46962'
p1180
aS'https://www.thingiverse.com/thing:2476750'
p1181
aS'https://www.thingiverse.com/thing:282474'
p1182
aS'https://www.thingiverse.com/thing:571853'
p1183
aS'https://www.thingiverse.com/thing:1415925'
p1184
aS'https://www.thingiverse.com/thing:2173035'
p1185
aS'https://www.thingiverse.com/thing:2472946'
p1186
aS'https://www.thingiverse.com/thing:1103401'
p1187
aS'https://www.thingiverse.com/thing:2498092'
p1188
aS'https://www.thingiverse.com/thing:1186315'
p1189
aS'https://www.thingiverse.com/thing:1687233'
p1190
aS'https://www.thingiverse.com/thing:2410383'
p1191
aS'https://www.thingiverse.com/thing:714721'
p1192
aS'https://www.thingiverse.com/thing:2420466'
p1193
aS'https://www.thingiverse.com/thing:2473090'
p1194
aS'https://www.thingiverse.com/thing:2517291'
p1195
aS'https://www.thingiverse.com/thing:1355018'
p1196
aS'https://www.thingiverse.com/thing:730263'
p1197
aS'https://www.thingiverse.com/thing:2487578'
p1198
aS'https://www.thingiverse.com/thing:913528'
p1199
aS'https://www.thingiverse.com/thing:2506017'
p1200
aS'https://www.thingiverse.com/thing:2308507'
p1201
aS'https://www.thingiverse.com/thing:2488617'
p1202
aS'https://www.thingiverse.com/thing:179226'
p1203
aS'https://www.thingiverse.com/thing:1751738'
p1204
aS'https://www.thingiverse.com/thing:2480577'
p1205
aS'https://www.thingiverse.com/thing:1147055'
p1206
aS'https://www.thingiverse.com/thing:2099004'
p1207
aS'https://www.thingiverse.com/thing:2394947'
p1208
aS'https://www.thingiverse.com/thing:2498739'
p1209
aS'https://www.thingiverse.com/thing:819417'
p1210
aS'https://www.thingiverse.com/thing:143467'
p1211
aS'https://www.thingiverse.com/thing:581117'
p1212
aS'https://www.thingiverse.com/thing:2208366'
p1213
aS'https://www.thingiverse.com/thing:2400428'
p1214
aS'https://www.thingiverse.com/thing:146289'
p1215
aS'https://www.thingiverse.com/thing:95818'
p1216
aS'https://www.thingiverse.com/thing:2350'
p1217
aS'https://www.thingiverse.com/thing:1696383'
p1218
aS'https://www.thingiverse.com/thing:1719018'
p1219
aS'https://www.thingiverse.com/thing:292822'
p1220
aS'https://www.thingiverse.com/thing:310961'
p1221
aS'https://www.thingiverse.com/thing:2078849'
p1222
aS'https://www.thingiverse.com/thing:2485910'
p1223
aS'https://www.thingiverse.com/thing:144668'
p1224
aS'https://www.thingiverse.com/thing:144660'
p1225
aS'https://www.thingiverse.com/thing:1659427'
p1226
aS'https://www.thingiverse.com/thing:1776106'
p1227
aS'https://www.thingiverse.com/thing:566112'
p1228
aS'https://www.thingiverse.com/thing:600550'
p1229
aS'https://www.thingiverse.com/thing:2497771'
p1230
aS'https://www.thingiverse.com/thing:2084208'
p1231
aS'https://www.thingiverse.com/thing:40257'
p1232
aS'https://www.thingiverse.com/thing:32204'
p1233
aS'https://www.thingiverse.com/thing:881114'
p1234
aS'https://www.thingiverse.com/thing:2490778'
p1235
aS'https://www.thingiverse.com/thing:1552526'
p1236
aS'https://www.thingiverse.com/thing:1603423'
p1237
aS'https://www.thingiverse.com/thing:195497'
p1238
aS'https://www.thingiverse.com/thing:351119'
p1239
aS'https://www.thingiverse.com/thing:2483276'
p1240
aS'https://www.thingiverse.com/thing:2002512'
p1241
aS'https://www.thingiverse.com/thing:45316'
p1242
aS'https://www.thingiverse.com/thing:1565405'
p1243
aS'https://www.thingiverse.com/thing:2088006'
p1244
aS'https://www.thingiverse.com/thing:754248'
p1245
aS'https://www.thingiverse.com/thing:2486135'
p1246
aS'https://www.thingiverse.com/thing:891904'
p1247
aS'https://www.thingiverse.com/thing:930147'
p1248
aS'https://www.thingiverse.com/thing:28270'
p1249
aS'https://www.thingiverse.com/thing:43672'
p1250
aS'https://www.thingiverse.com/thing:2220133'
p1251
aS'https://www.thingiverse.com/thing:2519895'
p1252
aS'https://www.thingiverse.com/thing:2449965'
p1253
aS'https://www.thingiverse.com/thing:2335510'
p1254
aS'https://www.thingiverse.com/thing:126371'
p1255
aS'https://www.thingiverse.com/thing:539127'
p1256
aS'https://www.thingiverse.com/thing:906266'
p1257
aS'https://www.thingiverse.com/thing:600429'
p1258
aS'https://www.thingiverse.com/thing:1680172'
p1259
aS'https://www.thingiverse.com/thing:555242'
p1260
aS'https://www.thingiverse.com/thing:1895060'
p1261
aS'https://www.thingiverse.com/thing:719099'
p1262
aS'https://www.thingiverse.com/thing:1138822'
p1263
aS'https://www.thingiverse.com/thing:2318105'
p1264
aS'https://www.thingiverse.com/thing:44579'
p1265
aS'https://www.thingiverse.com/thing:2456223'
p1266
aS'https://www.thingiverse.com/thing:2459441'
p1267
aS'https://www.thingiverse.com/thing:1259672'
p1268
aS'https://www.thingiverse.com/thing:1632146'
p1269
aS'https://www.thingiverse.com/thing:2452870'
p1270
aS'https://www.thingiverse.com/thing:843646'
p1271
aS'https://www.thingiverse.com/thing:376059'
p1272
aS'https://www.thingiverse.com/thing:154516'
p1273
aS'https://www.thingiverse.com/thing:2432401'
p1274
aS'https://www.thingiverse.com/thing:121658'
p1275
aS'https://www.thingiverse.com/thing:2500378'
p1276
aS'https://www.thingiverse.com/thing:2514659'
p1277
aS'https://www.thingiverse.com/thing:2243959'
p1278
aS'https://www.thingiverse.com/thing:1358776'
p1279
aS'https://www.thingiverse.com/thing:2481838'
p1280
aS'https://www.thingiverse.com/thing:240158'
p1281
aS'https://www.thingiverse.com/thing:908860'
p1282
aS'https://www.thingiverse.com/thing:2149962'
p1283
aS'https://www.thingiverse.com/thing:508896'
p1284
aS'https://www.thingiverse.com/thing:2058932'
p1285
aS'https://www.thingiverse.com/thing:87469'
p1286
aS'https://www.thingiverse.com/thing:874155'
p1287
aS'https://www.thingiverse.com/thing:2397775'
p1288
aS'https://www.thingiverse.com/thing:34558'
p1289
aS'https://www.thingiverse.com/thing:537516'
p1290
aS'https://www.thingiverse.com/thing:2494923'
p1291
aS'https://www.thingiverse.com/thing:2092820'
p1292
aS'https://www.thingiverse.com/thing:1557428'
p1293
aS'https://www.thingiverse.com/thing:110354'
p1294
aS'https://www.thingiverse.com/thing:2490185'
p1295
aS'https://www.thingiverse.com/thing:98825'
p1296
aS'https://www.thingiverse.com/thing:691127'
p1297
aS'https://www.thingiverse.com/thing:1112972'
p1298
aS'https://www.thingiverse.com/thing:611593'
p1299
aS'https://www.thingiverse.com/thing:127354'
p1300
aS'https://www.thingiverse.com/thing:2515757'
p1301
aS'https://www.thingiverse.com/thing:1354042'
p1302
aS'https://www.thingiverse.com/thing:66708'
p1303
aS'https://www.thingiverse.com/thing:2238443'
p1304
aS'https://www.thingiverse.com/thing:2481907'
p1305
aS'https://www.thingiverse.com/thing:2481901'
p1306
aS'https://www.thingiverse.com/thing:1582398'
p1307
aS'https://www.thingiverse.com/thing:243202'
p1308
aS'https://www.thingiverse.com/thing:1310904'
p1309
aS'https://www.thingiverse.com/thing:765152'
p1310
aS'https://www.thingiverse.com/thing:32048'
p1311
aS'https://www.thingiverse.com/thing:674460'
p1312
aS'https://www.thingiverse.com/thing:2143549'
p1313
aS'https://www.thingiverse.com/thing:891147'
p1314
aS'https://www.thingiverse.com/thing:1503676'
p1315
aS'https://www.thingiverse.com/thing:2427892'
p1316
aS'https://www.thingiverse.com/thing:1012118'
p1317
aS'https://www.thingiverse.com/thing:2040875'
p1318
aS'https://www.thingiverse.com/thing:615588'
p1319
aS'https://www.thingiverse.com/thing:1805384'
p1320
aS'https://www.thingiverse.com/thing:2296672'
p1321
aS'https://www.thingiverse.com/thing:2476611'
p1322
aS'https://www.thingiverse.com/thing:2484064'
p1323
aS'https://www.thingiverse.com/thing:124551'
p1324
aS'https://www.thingiverse.com/thing:1363148'
p1325
aS'https://www.thingiverse.com/thing:1955722'
p1326
aS'https://www.thingiverse.com/thing:2335067'
p1327
aS'https://www.thingiverse.com/thing:145237'
p1328
aS'https://www.thingiverse.com/thing:2494709'
p1329
aS'https://www.thingiverse.com/thing:714535'
p1330
aS'https://www.thingiverse.com/thing:1810155'
p1331
aS'https://www.thingiverse.com/thing:2179768'
p1332
aS'https://www.thingiverse.com/thing:2457794'
p1333
aS'https://www.thingiverse.com/thing:2224299'
p1334
aS'https://www.thingiverse.com/thing:955433'
p1335
aS'https://www.thingiverse.com/thing:619626'
p1336
aS'https://www.thingiverse.com/thing:2425796'
p1337
aS'https://www.thingiverse.com/thing:280974'
p1338
aS'https://www.thingiverse.com/thing:391664'
p1339
aS'https://www.thingiverse.com/thing:307267'
p1340
aS'https://www.thingiverse.com/thing:2501440'
p1341
aS'https://www.thingiverse.com/thing:1778066'
p1342
aS'https://www.thingiverse.com/thing:1545267'
p1343
aS'https://www.thingiverse.com/thing:196040'
p1344
aS'https://www.thingiverse.com/thing:65810'
p1345
aS'https://www.thingiverse.com/thing:481198'
p1346
aS'https://www.thingiverse.com/thing:2484408'
p1347
aS'https://www.thingiverse.com/thing:719886'
p1348
aS'https://www.thingiverse.com/thing:53451'
p1349
aS'https://www.thingiverse.com/thing:2489598'
p1350
aS'https://www.thingiverse.com/thing:2519623'
p1351
aS'https://www.thingiverse.com/thing:1947031'
p1352
aS'https://www.thingiverse.com/thing:2437268'
p1353
aS'https://www.thingiverse.com/thing:313883'
p1354
aS'https://www.thingiverse.com/thing:289987'
p1355
aS'https://www.thingiverse.com/thing:1140647'
p1356
aS'https://www.thingiverse.com/thing:1013583'
p1357
aS'https://www.thingiverse.com/thing:47956'
p1358
aS'https://www.thingiverse.com/thing:1875410'
p1359
aS'https://www.thingiverse.com/thing:1843235'
p1360
aS'https://www.thingiverse.com/thing:219040'
p1361
aS'https://www.thingiverse.com/thing:1439423'
p1362
aS'https://www.thingiverse.com/thing:986672'
p1363
aS'https://www.thingiverse.com/thing:2487507'
p1364
aS'https://www.thingiverse.com/thing:948231'
p1365
aS'https://www.thingiverse.com/thing:1952442'
p1366
aS'https://www.thingiverse.com/thing:833166'
p1367
aS'https://www.thingiverse.com/thing:179254'
p1368
aS'https://www.thingiverse.com/thing:614366'
p1369
aS'https://www.thingiverse.com/thing:65922'
p1370
aS'https://www.thingiverse.com/thing:1428478'
p1371
aS'https://www.thingiverse.com/thing:2519718'
p1372
aS'https://www.thingiverse.com/thing:2499656'
p1373
aS'https://www.thingiverse.com/thing:356676'
p1374
aS'https://www.thingiverse.com/thing:150113'
p1375
aS'https://www.thingiverse.com/thing:2237084'
p1376
aS'https://www.thingiverse.com/thing:2471951'
p1377
aS'https://www.thingiverse.com/thing:1999455'
p1378
aS'https://www.thingiverse.com/thing:116571'
p1379
aS'https://www.thingiverse.com/thing:1943463'
p1380
aS'https://www.thingiverse.com/thing:2490132'
p1381
aS'https://www.thingiverse.com/thing:2431575'
p1382
aS'https://www.thingiverse.com/thing:1471732'
p1383
aS'https://www.thingiverse.com/thing:2167626'
p1384
aS'https://www.thingiverse.com/thing:714484'
p1385
aS'https://www.thingiverse.com/thing:2414983'
p1386
aS'https://www.thingiverse.com/thing:2238843'
p1387
aS'https://www.thingiverse.com/thing:1103699'
p1388
aS'https://www.thingiverse.com/thing:2055193'
p1389
aS'https://www.thingiverse.com/thing:667480'
p1390
aS'https://www.thingiverse.com/thing:2488577'
p1391
aS'https://www.thingiverse.com/thing:46884'
p1392
aS'https://www.thingiverse.com/thing:2513942'
p1393
aS'https://www.thingiverse.com/thing:2515286'
p1394
aS'https://www.thingiverse.com/thing:1961848'
p1395
aS'https://www.thingiverse.com/thing:2473600'
p1396
aS'https://www.thingiverse.com/thing:2473603'
p1397
aS'https://www.thingiverse.com/thing:1890026'
p1398
aS'https://www.thingiverse.com/thing:235956'
p1399
aS'https://www.thingiverse.com/thing:1802409'
p1400
aS'https://www.thingiverse.com/thing:2260093'
p1401
aS'https://www.thingiverse.com/thing:2489971'
p1402
aS'https://www.thingiverse.com/thing:2466517'
p1403
aS'https://www.thingiverse.com/thing:309466'
p1404
aS'https://www.thingiverse.com/thing:2314156'
p1405
aS'https://www.thingiverse.com/thing:2408094'
p1406
aS'https://www.thingiverse.com/thing:773759'
p1407
aS'https://www.thingiverse.com/thing:2491884'
p1408
aS'https://www.thingiverse.com/thing:819046'
p1409
aS'https://www.thingiverse.com/thing:2386143'
p1410
aS'https://www.thingiverse.com/thing:713815'
p1411
aS'https://www.thingiverse.com/thing:2491399'
p1412
aS'https://www.thingiverse.com/thing:26237'
p1413
aS'https://www.thingiverse.com/thing:2504148'
p1414
aS'https://www.thingiverse.com/thing:684376'
p1415
aS'https://www.thingiverse.com/thing:12695'
p1416
aS'https://www.thingiverse.com/thing:185165'
p1417
aS'https://www.thingiverse.com/thing:2362287'
p1418
aS'https://www.thingiverse.com/thing:138642'
p1419
aS'https://www.thingiverse.com/thing:729029'
p1420
aS'https://www.thingiverse.com/thing:2189166'
p1421
aS'https://www.thingiverse.com/thing:831597'
p1422
aS'https://www.thingiverse.com/thing:2511623'
p1423
aS'https://www.thingiverse.com/thing:130344'
p1424
aS'https://www.thingiverse.com/thing:1880901'
p1425
aS'https://www.thingiverse.com/thing:344412'
p1426
aS'https://www.thingiverse.com/thing:1743972'
p1427
aS'https://www.thingiverse.com/thing:620234'
p1428
aS'https://www.thingiverse.com/thing:1028352'
p1429
aS'https://www.thingiverse.com/thing:2008805'
p1430
aS'https://www.thingiverse.com/thing:1887603'
p1431
aS'https://www.thingiverse.com/thing:2118624'
p1432
aS'https://www.thingiverse.com/thing:2507459'
p1433
aS'https://www.thingiverse.com/thing:690043'
p1434
aS'https://www.thingiverse.com/thing:1589652'
p1435
aS'https://www.thingiverse.com/thing:326395'
p1436
aS'https://www.thingiverse.com/thing:100990'
p1437
aS'https://www.thingiverse.com/thing:2471600'
p1438
aS'https://www.thingiverse.com/thing:2471044'
p1439
aS'https://www.thingiverse.com/thing:1212840'
p1440
aS'https://www.thingiverse.com/thing:2471040'
p1441
aS'https://www.thingiverse.com/thing:233540'
p1442
aS'https://www.thingiverse.com/thing:2504267'
p1443
aS'https://www.thingiverse.com/thing:1573473'
p1444
aS'https://www.thingiverse.com/thing:923580'
p1445
aS'https://www.thingiverse.com/thing:2474675'
p1446
aS'https://www.thingiverse.com/thing:213343'
p1447
aS'https://www.thingiverse.com/thing:2483040'
p1448
aS'https://www.thingiverse.com/thing:2493008'
p1449
aS'https://www.thingiverse.com/thing:558600'
p1450
aS'https://www.thingiverse.com/thing:2285674'
p1451
aS'https://www.thingiverse.com/thing:2314205'
p1452
aS'https://www.thingiverse.com/thing:2493006'
p1453
aS'https://www.thingiverse.com/thing:2493000'
p1454
aS'https://www.thingiverse.com/thing:971205'
p1455
aS'https://www.thingiverse.com/thing:2502215'
p1456
aS'https://www.thingiverse.com/thing:2492063'
p1457
aS'https://www.thingiverse.com/thing:684102'
p1458
aS'https://www.thingiverse.com/thing:704409'
p1459
aS'https://www.thingiverse.com/thing:1819204'
p1460
aS'https://www.thingiverse.com/thing:82620'
p1461
aS'https://www.thingiverse.com/thing:2478999'
p1462
aS'https://www.thingiverse.com/thing:2485453'
p1463
aS'https://www.thingiverse.com/thing:471658'
p1464
aS'https://www.thingiverse.com/thing:2476629'
p1465
aS'https://www.thingiverse.com/thing:24675'
p1466
aS'https://www.thingiverse.com/thing:2205644'
p1467
aS'https://www.thingiverse.com/thing:1027406'
p1468
aS'https://www.thingiverse.com/thing:2468110'
p1469
aS'https://www.thingiverse.com/thing:455507'
p1470
aS'https://www.thingiverse.com/thing:722314'
p1471
aS'https://www.thingiverse.com/thing:670704'
p1472
aS'https://www.thingiverse.com/thing:1423364'
p1473
aS'https://www.thingiverse.com/thing:2174798'
p1474
aS'https://www.thingiverse.com/thing:662501'
p1475
aS'https://www.thingiverse.com/thing:2376777'
p1476
aS'https://www.thingiverse.com/thing:2191675'
p1477
aS'https://www.thingiverse.com/thing:809733'
p1478
aS'https://www.thingiverse.com/thing:239738'
p1479
aS'https://www.thingiverse.com/thing:82533'
p1480
aS'https://www.thingiverse.com/thing:2442406'
p1481
aS'https://www.thingiverse.com/thing:327753'
p1482
aS'https://www.thingiverse.com/thing:408189'
p1483
aS'https://www.thingiverse.com/thing:2236103'
p1484
aS'https://www.thingiverse.com/thing:2484802'
p1485
aS'https://www.thingiverse.com/thing:2404928'
p1486
aS'https://www.thingiverse.com/thing:786503'
p1487
aS'https://www.thingiverse.com/thing:512766'
p1488
aS'https://www.thingiverse.com/thing:1649799'
p1489
aS'https://www.thingiverse.com/thing:2398231'
p1490
aS'https://www.thingiverse.com/thing:25872'
p1491
aS'https://www.thingiverse.com/thing:2296042'
p1492
aS'https://www.thingiverse.com/thing:2474921'
p1493
aS'https://www.thingiverse.com/thing:2005537'
p1494
aS'https://www.thingiverse.com/thing:2489200'
p1495
aS'https://www.thingiverse.com/thing:2257297'
p1496
aS'https://www.thingiverse.com/thing:17551'
p1497
aS'https://www.thingiverse.com/thing:1420442'
p1498
aS'https://www.thingiverse.com/thing:2328089'
p1499
aS'https://www.thingiverse.com/thing:912478'
p1500
aS'https://www.thingiverse.com/thing:104694'
p1501
aS'https://www.thingiverse.com/thing:2510711'
p1502
aS'https://www.thingiverse.com/thing:2476112'
p1503
aS'https://www.thingiverse.com/thing:290983'
p1504
aS'https://www.thingiverse.com/thing:2476605'
p1505
aS'https://www.thingiverse.com/thing:2485073'
p1506
aS'https://www.thingiverse.com/thing:657146'
p1507
aS'https://www.thingiverse.com/thing:330127'
p1508
aS'https://www.thingiverse.com/thing:952564'
p1509
aS'https://www.thingiverse.com/thing:455093'
p1510
aS'https://www.thingiverse.com/thing:147705'
p1511
aS'https://www.thingiverse.com/thing:17773'
p1512
aS'https://www.thingiverse.com/thing:774456'
p1513
aS'https://www.thingiverse.com/thing:2473062'
p1514
aS'https://www.thingiverse.com/thing:646414'
p1515
aS'https://www.thingiverse.com/thing:404028'
p1516
aS'https://www.thingiverse.com/thing:2503281'
p1517
aS'https://www.thingiverse.com/thing:1735468'
p1518
aS'https://www.thingiverse.com/thing:947423'
p1519
aS'https://www.thingiverse.com/thing:1458875'
p1520
aS'https://www.thingiverse.com/thing:832751'
p1521
aS'https://www.thingiverse.com/thing:1951251'
p1522
aS'https://www.thingiverse.com/thing:2509608'
p1523
aS'https://www.thingiverse.com/thing:2481684'
p1524
aS'https://www.thingiverse.com/thing:366896'
p1525
aS'https://www.thingiverse.com/thing:17175'
p1526
aS'https://www.thingiverse.com/thing:1010757'
p1527
aS'https://www.thingiverse.com/thing:2505918'
p1528
aS'https://www.thingiverse.com/thing:854906'
p1529
aS'https://www.thingiverse.com/thing:2439890'
p1530
aS'https://www.thingiverse.com/thing:1867081'
p1531
aS'https://www.thingiverse.com/thing:113117'
p1532
aS'https://www.thingiverse.com/thing:1027977'
p1533
aS'https://www.thingiverse.com/thing:2081613'
p1534
aS'https://www.thingiverse.com/thing:2326022'
p1535
aS'https://www.thingiverse.com/thing:1846582'
p1536
aS'https://www.thingiverse.com/thing:915435'
p1537
aS'https://www.thingiverse.com/thing:2504817'
p1538
aS'https://www.thingiverse.com/thing:585325'
p1539
aS'https://www.thingiverse.com/thing:98450'
p1540
aS'https://www.thingiverse.com/thing:571949'
p1541
aS'https://www.thingiverse.com/thing:2489760'
p1542
aS'https://www.thingiverse.com/thing:943563'
p1543
aS'https://www.thingiverse.com/thing:580192'
p1544
aS'https://www.thingiverse.com/thing:241899'
p1545
aS'https://www.thingiverse.com/thing:909384'
p1546
aS'https://www.thingiverse.com/thing:1370815'
p1547
aS'https://www.thingiverse.com/thing:760369'
p1548
aS'https://www.thingiverse.com/thing:1613714'
p1549
aS'https://www.thingiverse.com/thing:2500899'
p1550
aS'https://www.thingiverse.com/thing:679849'
p1551
aS'https://www.thingiverse.com/thing:1682427'
p1552
aS'https://www.thingiverse.com/thing:325294'
p1553
aS'https://www.thingiverse.com/thing:144775'
p1554
aS'https://www.thingiverse.com/thing:2167147'
p1555
aS'https://www.thingiverse.com/thing:340178'
p1556
aS'https://www.thingiverse.com/thing:1779128'
p1557
aS'https://www.thingiverse.com/thing:2480228'
p1558
aS'https://www.thingiverse.com/thing:332868'
p1559
aS'https://www.thingiverse.com/thing:255924'
p1560
aS'https://www.thingiverse.com/thing:321624'
p1561
aS'https://www.thingiverse.com/thing:843800'
p1562
aS'https://www.thingiverse.com/thing:106568'
p1563
aS'https://www.thingiverse.com/thing:10261'
p1564
aS'https://www.thingiverse.com/thing:311002'
p1565
aS'https://www.thingiverse.com/thing:2503599'
p1566
aS'https://www.thingiverse.com/thing:1448226'
p1567
aS'https://www.thingiverse.com/thing:2517313'
p1568
aS'https://www.thingiverse.com/thing:2136052'
p1569
aS'https://www.thingiverse.com/thing:1711193'
p1570
aS'https://www.thingiverse.com/thing:1005699'
p1571
aS'https://www.thingiverse.com/thing:2365532'
p1572
aS'https://www.thingiverse.com/thing:2298617'
p1573
aS'https://www.thingiverse.com/thing:2491671'
p1574
aS'https://www.thingiverse.com/thing:230802'
p1575
aS'https://www.thingiverse.com/thing:437314'
p1576
aS'https://www.thingiverse.com/thing:2496170'
p1577
aS'https://www.thingiverse.com/thing:1712408'
p1578
aS'https://www.thingiverse.com/thing:2495377'
p1579
aS'https://www.thingiverse.com/thing:9804'
p1580
aS'https://www.thingiverse.com/thing:340312'
p1581
aS'https://www.thingiverse.com/thing:2487022'
p1582
aS'https://www.thingiverse.com/thing:2497718'
p1583
aS'https://www.thingiverse.com/thing:593002'
p1584
aS'https://www.thingiverse.com/thing:1318414'
p1585
aS'https://www.thingiverse.com/thing:864011'
p1586
aS'https://www.thingiverse.com/thing:2510857'
p1587
aS'https://www.thingiverse.com/thing:738485'
p1588
aS'https://www.thingiverse.com/thing:445919'
p1589
aS'https://www.thingiverse.com/thing:2116871'
p1590
aS'https://www.thingiverse.com/thing:2478566'
p1591
aS'https://www.thingiverse.com/thing:744590'
p1592
aS'https://www.thingiverse.com/thing:2239949'
p1593
aS'https://www.thingiverse.com/thing:2491873'
p1594
aS'https://www.thingiverse.com/thing:2496396'
p1595
aS'https://www.thingiverse.com/thing:570797'
p1596
aS'https://www.thingiverse.com/thing:2487189'
p1597
aS'https://www.thingiverse.com/thing:1169514'
p1598
aS'https://www.thingiverse.com/thing:698317'
p1599
aS'https://www.thingiverse.com/thing:557527'
p1600
aS'https://www.thingiverse.com/thing:1218358'
p1601
aS'https://www.thingiverse.com/thing:527736'
p1602
aS'https://www.thingiverse.com/thing:2507698'
p1603
aS'https://www.thingiverse.com/thing:2474245'
p1604
aS'https://www.thingiverse.com/thing:2486000'
p1605
aS'https://www.thingiverse.com/thing:490554'
p1606
aS'https://www.thingiverse.com/thing:575815'
p1607
aS'https://www.thingiverse.com/thing:250662'
p1608
aS'https://www.thingiverse.com/thing:929504'
p1609
aS'https://www.thingiverse.com/thing:2064359'
p1610
aS'https://www.thingiverse.com/thing:666118'
p1611
aS'https://www.thingiverse.com/thing:2083062'
p1612
aS'https://www.thingiverse.com/thing:2437106'
p1613
aS'https://www.thingiverse.com/thing:839620'
p1614
aS'https://www.thingiverse.com/thing:354723'
p1615
aS'https://www.thingiverse.com/thing:886812'
p1616
aS'https://www.thingiverse.com/thing:307832'
p1617
aS'https://www.thingiverse.com/thing:794110'
p1618
aS'https://www.thingiverse.com/thing:186979'
p1619
aS'https://www.thingiverse.com/thing:2493386'
p1620
aS'https://www.thingiverse.com/thing:2373660'
p1621
aS'https://www.thingiverse.com/thing:2478709'
p1622
aS'https://www.thingiverse.com/thing:1468596'
p1623
aS'https://www.thingiverse.com/thing:1695909'
p1624
aS'https://www.thingiverse.com/thing:2028673'
p1625
aS'https://www.thingiverse.com/thing:22268'
p1626
aS'https://www.thingiverse.com/thing:2483142'
p1627
aS'https://www.thingiverse.com/thing:900401'
p1628
aS'https://www.thingiverse.com/thing:2049003'
p1629
aS'https://www.thingiverse.com/thing:2515736'
p1630
aS'https://www.thingiverse.com/thing:2253349'
p1631
aS'https://www.thingiverse.com/thing:957292'
p1632
aS'https://www.thingiverse.com/thing:3998'
p1633
aS'https://www.thingiverse.com/thing:2156399'
p1634
aS'https://www.thingiverse.com/thing:775824'
p1635
aS'https://www.thingiverse.com/thing:1596180'
p1636
aS'https://www.thingiverse.com/thing:2515426'
p1637
aS'https://www.thingiverse.com/thing:2313388'
p1638
aS'https://www.thingiverse.com/thing:622390'
p1639
aS'https://www.thingiverse.com/thing:2479011'
p1640
aS'https://www.thingiverse.com/thing:35120'
p1641
aS'https://www.thingiverse.com/thing:2478011'
p1642
aS'https://www.thingiverse.com/thing:101105'
p1643
aS'https://www.thingiverse.com/thing:2263216'
p1644
aS'https://www.thingiverse.com/thing:274111'
p1645
aS'https://www.thingiverse.com/thing:2357531'
p1646
aS'https://www.thingiverse.com/thing:2504747'
p1647
aS'https://www.thingiverse.com/thing:2485208'
p1648
aS'https://www.thingiverse.com/thing:2454228'
p1649
aS'https://www.thingiverse.com/thing:675620'
p1650
aS'https://www.thingiverse.com/thing:2485206'
p1651
aS'https://www.thingiverse.com/thing:2474938'
p1652
aS'https://www.thingiverse.com/thing:283738'
p1653
aS'https://www.thingiverse.com/thing:57917'
p1654
aS'https://www.thingiverse.com/thing:705095'
p1655
aS'https://www.thingiverse.com/thing:1406482'
p1656
aS'https://www.thingiverse.com/thing:2362427'
p1657
aS'https://www.thingiverse.com/thing:338328'
p1658
aS'https://www.thingiverse.com/thing:264769'
p1659
aS'https://www.thingiverse.com/thing:85168'
p1660
aS'https://www.thingiverse.com/thing:1163581'
p1661
aS'https://www.thingiverse.com/thing:328569'
p1662
aS'https://www.thingiverse.com/thing:2475047'
p1663
aS'https://www.thingiverse.com/thing:792988'
p1664
aS'https://www.thingiverse.com/thing:438789'
p1665
aS'https://www.thingiverse.com/thing:908621'
p1666
aS'https://www.thingiverse.com/thing:1546607'
p1667
aS'https://www.thingiverse.com/thing:2059192'
p1668
aS'https://www.thingiverse.com/thing:647425'
p1669
aS'https://www.thingiverse.com/thing:2318904'
p1670
aS'https://www.thingiverse.com/thing:2404599'
p1671
aS'https://www.thingiverse.com/thing:46335'
p1672
aS'https://www.thingiverse.com/thing:2349232'
p1673
aS'https://www.thingiverse.com/thing:2514268'
p1674
aS'https://www.thingiverse.com/thing:476016'
p1675
aS'https://www.thingiverse.com/thing:937740'
p1676
aS'https://www.thingiverse.com/thing:796746'
p1677
aS'https://www.thingiverse.com/thing:2489719'
p1678
aS'https://www.thingiverse.com/thing:978768'
p1679
aS'https://www.thingiverse.com/thing:1376314'
p1680
aS'https://www.thingiverse.com/thing:1721319'
p1681
aS'https://www.thingiverse.com/thing:2480890'
p1682
aS'https://www.thingiverse.com/thing:48695'
p1683
aS'https://www.thingiverse.com/thing:1396307'
p1684
aS'https://www.thingiverse.com/thing:73489'
p1685
aS'https://www.thingiverse.com/thing:580056'
p1686
aS'https://www.thingiverse.com/thing:2317950'
p1687
aS'https://www.thingiverse.com/thing:1631755'
p1688
aS'https://www.thingiverse.com/thing:1938142'
p1689
aS'https://www.thingiverse.com/thing:604915'
p1690
aS'https://www.thingiverse.com/thing:2502008'
p1691
aS'https://www.thingiverse.com/thing:855996'
p1692
aS'https://www.thingiverse.com/thing:2467234'
p1693
aS'https://www.thingiverse.com/thing:2481547'
p1694
aS'https://www.thingiverse.com/thing:1447679'
p1695
aS'https://www.thingiverse.com/thing:36141'
p1696
aS'https://www.thingiverse.com/thing:218459'
p1697
aS'https://www.thingiverse.com/thing:922740'
p1698
aS'https://www.thingiverse.com/thing:2239205'
p1699
aS'https://www.thingiverse.com/thing:106595'
p1700
aS'https://www.thingiverse.com/thing:1273673'
p1701
aS'https://www.thingiverse.com/thing:2490393'
p1702
aS'https://www.thingiverse.com/thing:2495146'
p1703
aS'https://www.thingiverse.com/thing:2490931'
p1704
aS'https://www.thingiverse.com/thing:2502460'
p1705
aS'https://www.thingiverse.com/thing:207985'
p1706
aS'https://www.thingiverse.com/thing:2101165'
p1707
aS'https://www.thingiverse.com/thing:591'
p1708
aS'https://www.thingiverse.com/thing:233094'
p1709
aS'https://www.thingiverse.com/thing:303037'
p1710
aS'https://www.thingiverse.com/thing:329596'
p1711
aS'https://www.thingiverse.com/thing:902826'
p1712
aS'https://www.thingiverse.com/thing:1359035'
p1713
aS'https://www.thingiverse.com/thing:721685'
p1714
aS'https://www.thingiverse.com/thing:747305'
p1715
aS'https://www.thingiverse.com/thing:2022824'
p1716
aS'https://www.thingiverse.com/thing:2497854'
p1717
aS'https://www.thingiverse.com/thing:2334406'
p1718
aS'https://www.thingiverse.com/thing:26524'
p1719
aS'https://www.thingiverse.com/thing:2431799'
p1720
aS'https://www.thingiverse.com/thing:609303'
p1721
aS'https://www.thingiverse.com/thing:53321'
p1722
aS'https://www.thingiverse.com/thing:713236'
p1723
aS'https://www.thingiverse.com/thing:18365'
p1724
aS'https://www.thingiverse.com/thing:948366'
p1725
aS'https://www.thingiverse.com/thing:2500139'
p1726
aS'https://www.thingiverse.com/thing:824711'
p1727
aS'https://www.thingiverse.com/thing:2513922'
p1728
aS'https://www.thingiverse.com/thing:470882'
p1729
aS'https://www.thingiverse.com/thing:2222081'
p1730
aS'https://www.thingiverse.com/thing:2477074'
p1731
aS'https://www.thingiverse.com/thing:2502810'
p1732
aS'https://www.thingiverse.com/thing:923108'
p1733
aS'https://www.thingiverse.com/thing:1683070'
p1734
aS'https://www.thingiverse.com/thing:1711184'
p1735
aS'https://www.thingiverse.com/thing:1004996'
p1736
aS'https://www.thingiverse.com/thing:36321'
p1737
aS'https://www.thingiverse.com/thing:1562501'
p1738
aS'https://www.thingiverse.com/thing:1150625'
p1739
aS'https://www.thingiverse.com/thing:1924656'
p1740
aS'https://www.thingiverse.com/thing:1894471'
p1741
aS'https://www.thingiverse.com/thing:1449187'
p1742
aS'https://www.thingiverse.com/thing:2496140'
p1743
aS'https://www.thingiverse.com/thing:630577'
p1744
aS'https://www.thingiverse.com/thing:983849'
p1745
aS'https://www.thingiverse.com/thing:1172630'
p1746
aS'https://www.thingiverse.com/thing:45347'
p1747
aS'https://www.thingiverse.com/thing:2469997'
p1748
aS'https://www.thingiverse.com/thing:547706'
p1749
aS'https://www.thingiverse.com/thing:2452401'
p1750
aS'https://www.thingiverse.com/thing:597043'
p1751
aS'https://www.thingiverse.com/thing:1411578'
p1752
aS'https://www.thingiverse.com/thing:2056511'
p1753
aS'https://www.thingiverse.com/thing:857452'
p1754
aS'https://www.thingiverse.com/thing:127748'
p1755
aS'https://www.thingiverse.com/thing:2469660'
p1756
aS'https://www.thingiverse.com/thing:20733'
p1757
aS'https://www.thingiverse.com/thing:1543880'
p1758
aS'https://www.thingiverse.com/thing:2077239'
p1759
aS'https://www.thingiverse.com/thing:12006'
p1760
aS'https://www.thingiverse.com/thing:71235'
p1761
aS'https://www.thingiverse.com/thing:2139025'
p1762
aS'https://www.thingiverse.com/thing:670827'
p1763
aS'https://www.thingiverse.com/thing:2138286'
p1764
aS'https://www.thingiverse.com/thing:2228012'
p1765
aS'https://www.thingiverse.com/thing:2515643'
p1766
aS'https://www.thingiverse.com/thing:2503962'
p1767
aS'https://www.thingiverse.com/thing:50212'
p1768
aS'https://www.thingiverse.com/thing:170076'
p1769
aS'https://www.thingiverse.com/thing:457259'
p1770
aS'https://www.thingiverse.com/thing:1201466'
p1771
aS'https://www.thingiverse.com/thing:2483332'
p1772
aS'https://www.thingiverse.com/thing:34829'
p1773
aS'https://www.thingiverse.com/thing:147050'
p1774
aS'https://www.thingiverse.com/thing:2383216'
p1775
aS'https://www.thingiverse.com/thing:234867'
p1776
aS'https://www.thingiverse.com/thing:44185'
p1777
aS'https://www.thingiverse.com/thing:763622'
p1778
aS'https://www.thingiverse.com/thing:507061'
p1779
aS'https://www.thingiverse.com/thing:2018780'
p1780
aS'https://www.thingiverse.com/thing:2483841'
p1781
aS'https://www.thingiverse.com/thing:2493028'
p1782
aS'https://www.thingiverse.com/thing:1887004'
p1783
aS'https://www.thingiverse.com/thing:1496468'
p1784
aS'https://www.thingiverse.com/thing:2423960'
p1785
aS'https://www.thingiverse.com/thing:460222'
p1786
aS'https://www.thingiverse.com/thing:2514601'
p1787
aS'https://www.thingiverse.com/thing:458903'
p1788
aS'https://www.thingiverse.com/thing:2163508'
p1789
aS'https://www.thingiverse.com/thing:282868'
p1790
aS'https://www.thingiverse.com/thing:67911'
p1791
aS'https://www.thingiverse.com/thing:1239665'
p1792
aS'https://www.thingiverse.com/thing:2482559'
p1793
aS'https://www.thingiverse.com/thing:1695822'
p1794
aS'https://www.thingiverse.com/thing:674017'
p1795
aS'https://www.thingiverse.com/thing:2475630'
p1796
aS'https://www.thingiverse.com/thing:2482314'
p1797
aS'https://www.thingiverse.com/thing:182571'
p1798
aS'https://www.thingiverse.com/thing:772936'
p1799
aS'https://www.thingiverse.com/thing:2486654'
p1800
aS'https://www.thingiverse.com/thing:2486307'
p1801
aS'https://www.thingiverse.com/thing:376158'
p1802
aS'https://www.thingiverse.com/thing:1010254'
p1803
aS'https://www.thingiverse.com/thing:2492647'
p1804
aS'https://www.thingiverse.com/thing:153197'
p1805
aS'https://www.thingiverse.com/thing:398548'
p1806
aS'https://www.thingiverse.com/thing:2492738'
p1807
aS'https://www.thingiverse.com/thing:2509471'
p1808
aS'https://www.thingiverse.com/thing:2023906'
p1809
aS'https://www.thingiverse.com/thing:259005'
p1810
aS'https://www.thingiverse.com/thing:1090678'
p1811
aS'https://www.thingiverse.com/thing:924119'
p1812
aS'https://www.thingiverse.com/thing:415808'
p1813
aS'https://www.thingiverse.com/thing:403001'
p1814
aS'https://www.thingiverse.com/thing:905849'
p1815
aS'https://www.thingiverse.com/thing:1985385'
p1816
aS'https://www.thingiverse.com/thing:696093'
p1817
aS'https://www.thingiverse.com/thing:2478955'
p1818
aS'https://www.thingiverse.com/thing:92266'
p1819
aS'https://www.thingiverse.com/thing:2493352'
p1820
aS'https://www.thingiverse.com/thing:2026842'
p1821
aS'https://www.thingiverse.com/thing:555591'
p1822
aS'https://www.thingiverse.com/thing:2498272'
p1823
aS'https://www.thingiverse.com/thing:1884170'
p1824
aS'https://www.thingiverse.com/thing:632523'
p1825
aS'https://www.thingiverse.com/thing:2396250'
p1826
aS'https://www.thingiverse.com/thing:754078'
p1827
aS'https://www.thingiverse.com/thing:2479441'
p1828
aS'https://www.thingiverse.com/thing:1697660'
p1829
aS'https://www.thingiverse.com/thing:1415895'
p1830
aS'https://www.thingiverse.com/thing:33432'
p1831
aS'https://www.thingiverse.com/thing:1839201'
p1832
aS'https://www.thingiverse.com/thing:1391680'
p1833
aS'https://www.thingiverse.com/thing:179318'
p1834
aS'https://www.thingiverse.com/thing:271769'
p1835
aS'https://www.thingiverse.com/thing:27678'
p1836
aS'https://www.thingiverse.com/thing:1366605'
p1837
aS'https://www.thingiverse.com/thing:1606181'
p1838
aS'https://www.thingiverse.com/thing:2515649'
p1839
aS'https://www.thingiverse.com/thing:252162'
p1840
aS'https://www.thingiverse.com/thing:246198'
p1841
aS'https://www.thingiverse.com/thing:2476397'
p1842
aS'https://www.thingiverse.com/thing:826098'
p1843
aS'https://www.thingiverse.com/thing:1597716'
p1844
aS'https://www.thingiverse.com/thing:62908'
p1845
aS'https://www.thingiverse.com/thing:2159922'
p1846
aS'https://www.thingiverse.com/thing:152804'
p1847
aS'https://www.thingiverse.com/thing:2477714'
p1848
aS'https://www.thingiverse.com/thing:27118'
p1849
aS'https://www.thingiverse.com/thing:2477719'
p1850
aS'https://www.thingiverse.com/thing:2477718'
p1851
aS'https://www.thingiverse.com/thing:2193233'
p1852
aS'https://www.thingiverse.com/thing:196037'
p1853
aS'https://www.thingiverse.com/thing:701051'
p1854
aS'https://www.thingiverse.com/thing:2477663'
p1855
aS'https://www.thingiverse.com/thing:391146'
p1856
aS'https://www.thingiverse.com/thing:196038'
p1857
aS'https://www.thingiverse.com/thing:524988'
p1858
aS'https://www.thingiverse.com/thing:171002'
p1859
aS'https://www.thingiverse.com/thing:518109'
p1860
aS'https://www.thingiverse.com/thing:943091'
p1861
aS'https://www.thingiverse.com/thing:2473365'
p1862
aS'https://www.thingiverse.com/thing:86635'
p1863
aS'https://www.thingiverse.com/thing:2155281'
p1864
aS'https://www.thingiverse.com/thing:342167'
p1865
aS'https://www.thingiverse.com/thing:481259'
p1866
aS'https://www.thingiverse.com/thing:910216'
p1867
aS'https://www.thingiverse.com/thing:1654624'
p1868
aS'https://www.thingiverse.com/thing:26735'
p1869
aS'https://www.thingiverse.com/thing:26734'
p1870
aS'https://www.thingiverse.com/thing:33699'
p1871
aS'https://www.thingiverse.com/thing:1155502'
p1872
aS'https://www.thingiverse.com/thing:1657138'
p1873
aS'https://www.thingiverse.com/thing:2441028'
p1874
aS'https://www.thingiverse.com/thing:1787609'
p1875
aS'https://www.thingiverse.com/thing:27739'
p1876
aS'https://www.thingiverse.com/thing:796504'
p1877
aS'https://www.thingiverse.com/thing:201304'
p1878
aS'https://www.thingiverse.com/thing:2503741'
p1879
aS'https://www.thingiverse.com/thing:2131069'
p1880
aS'https://www.thingiverse.com/thing:2074478'
p1881
aS'https://www.thingiverse.com/thing:1430125'
p1882
aS'https://www.thingiverse.com/thing:2023835'
p1883
aS'https://www.thingiverse.com/thing:2477449'
p1884
aS'https://www.thingiverse.com/thing:2178599'
p1885
aS'https://www.thingiverse.com/thing:2477910'
p1886
aS'https://www.thingiverse.com/thing:2477440'
p1887
aS'https://www.thingiverse.com/thing:16965'
p1888
aS'https://www.thingiverse.com/thing:2506054'
p1889
aS'https://www.thingiverse.com/thing:1874774'
p1890
aS'https://www.thingiverse.com/thing:2440465'
p1891
aS'https://www.thingiverse.com/thing:2470858'
p1892
aS'https://www.thingiverse.com/thing:166045'
p1893
aS'https://www.thingiverse.com/thing:802284'
p1894
aS'https://www.thingiverse.com/thing:1344108'
p1895
aS'https://www.thingiverse.com/thing:359008'
p1896
aS'https://www.thingiverse.com/thing:1428539'
p1897
aS'https://www.thingiverse.com/thing:18379'
p1898
aS'https://www.thingiverse.com/thing:810091'
p1899
aS'https://www.thingiverse.com/thing:67503'
p1900
aS'https://www.thingiverse.com/thing:119616'
p1901
aS'https://www.thingiverse.com/thing:2058707'
p1902
aS'https://www.thingiverse.com/thing:1905344'
p1903
aS'https://www.thingiverse.com/thing:2498035'
p1904
aS'https://www.thingiverse.com/thing:2490679'
p1905
aS'https://www.thingiverse.com/thing:972768'
p1906
aS'https://www.thingiverse.com/thing:2357501'
p1907
aS'https://www.thingiverse.com/thing:357808'
p1908
aS'https://www.thingiverse.com/thing:441722'
p1909
aS'https://www.thingiverse.com/thing:167875'
p1910
aS'https://www.thingiverse.com/thing:1191829'
p1911
aS'https://www.thingiverse.com/thing:2487649'
p1912
aS'https://www.thingiverse.com/thing:404824'
p1913
aS'https://www.thingiverse.com/thing:1943946'
p1914
aS'https://www.thingiverse.com/thing:2335558'
p1915
aS'https://www.thingiverse.com/thing:9860'
p1916
aS'https://www.thingiverse.com/thing:795066'
p1917
aS'https://www.thingiverse.com/thing:418966'
p1918
aS'https://www.thingiverse.com/thing:449877'
p1919
aS'https://www.thingiverse.com/thing:40212'
p1920
aS'https://www.thingiverse.com/thing:2369767'
p1921
aS'https://www.thingiverse.com/thing:2002258'
p1922
aS'https://www.thingiverse.com/thing:687931'
p1923
aS'https://www.thingiverse.com/thing:171489'
p1924
aS'https://www.thingiverse.com/thing:2491100'
p1925
aS'https://www.thingiverse.com/thing:2294191'
p1926
aS'https://www.thingiverse.com/thing:857024'
p1927
aS'https://www.thingiverse.com/thing:2478547'
p1928
aS'https://www.thingiverse.com/thing:2383788'
p1929
aS'https://www.thingiverse.com/thing:2284621'
p1930
aS'https://www.thingiverse.com/thing:912051'
p1931
aS'https://www.thingiverse.com/thing:2230232'
p1932
aS'https://www.thingiverse.com/thing:76369'
p1933
aS'https://www.thingiverse.com/thing:12686'
p1934
aS'https://www.thingiverse.com/thing:2245453'
p1935
aS'https://www.thingiverse.com/thing:303490'
p1936
aS'https://www.thingiverse.com/thing:2426076'
p1937
aS'https://www.thingiverse.com/thing:51376'
p1938
aS'https://www.thingiverse.com/thing:2508517'
p1939
aS'https://www.thingiverse.com/thing:2024364'
p1940
aS'https://www.thingiverse.com/thing:2493369'
p1941
aS'https://www.thingiverse.com/thing:521463'
p1942
aS'https://www.thingiverse.com/thing:766501'
p1943
aS'https://www.thingiverse.com/thing:2493038'
p1944
aS'https://www.thingiverse.com/thing:666412'
p1945
aS'https://www.thingiverse.com/thing:395231'
p1946
aS'https://www.thingiverse.com/thing:2052282'
p1947
aS'https://www.thingiverse.com/thing:2071901'
p1948
aS'https://www.thingiverse.com/thing:88849'
p1949
aS'https://www.thingiverse.com/thing:2514615'
p1950
aS'https://www.thingiverse.com/thing:2479141'
p1951
aS'https://www.thingiverse.com/thing:1587203'
p1952
aS'https://www.thingiverse.com/thing:2490725'
p1953
aS'https://www.thingiverse.com/thing:524179'
p1954
aS'https://www.thingiverse.com/thing:414552'
p1955
aS'https://www.thingiverse.com/thing:979218'
p1956
aS'https://www.thingiverse.com/thing:2029672'
p1957
aS'https://www.thingiverse.com/thing:291066'
p1958
aS'https://www.thingiverse.com/thing:891329'
p1959
aS'https://www.thingiverse.com/thing:2474735'
p1960
aS'https://www.thingiverse.com/thing:1933150'
p1961
aS'https://www.thingiverse.com/thing:2271632'
p1962
aS'https://www.thingiverse.com/thing:2486664'
p1963
aS'https://www.thingiverse.com/thing:572306'
p1964
aS'https://www.thingiverse.com/thing:2086107'
p1965
aS'https://www.thingiverse.com/thing:970253'
p1966
aS'https://www.thingiverse.com/thing:2483498'
p1967
aS'https://www.thingiverse.com/thing:1117728'
p1968
aS'https://www.thingiverse.com/thing:2481942'
p1969
aS'https://www.thingiverse.com/thing:2510039'
p1970
aS'https://www.thingiverse.com/thing:909901'
p1971
aS'https://www.thingiverse.com/thing:548151'
p1972
aS'https://www.thingiverse.com/thing:941177'
p1973
aS'https://www.thingiverse.com/thing:2437302'
p1974
aS'https://www.thingiverse.com/thing:512350'
p1975
aS'https://www.thingiverse.com/thing:688725'
p1976
aS'https://www.thingiverse.com/thing:1595140'
p1977
aS'https://www.thingiverse.com/thing:2399514'
p1978
aS'https://www.thingiverse.com/thing:248009'
p1979
aS'https://www.thingiverse.com/thing:55553'
p1980
aS'https://www.thingiverse.com/thing:2481894'
p1981
aS'https://www.thingiverse.com/thing:2170138'
p1982
aS'https://www.thingiverse.com/thing:472463'
p1983
aS'https://www.thingiverse.com/thing:1748591'
p1984
aS'https://www.thingiverse.com/thing:471112'
p1985
aS'https://www.thingiverse.com/thing:2482940'
p1986
aS'https://www.thingiverse.com/thing:2476893'
p1987
aS'https://www.thingiverse.com/thing:11978'
p1988
aS'https://www.thingiverse.com/thing:572235'
p1989
aS'https://www.thingiverse.com/thing:938561'
p1990
aS'https://www.thingiverse.com/thing:182144'
p1991
aS'https://www.thingiverse.com/thing:2490385'
p1992
aS'https://www.thingiverse.com/thing:2087128'
p1993
aS'https://www.thingiverse.com/thing:2159840'
p1994
aS'https://www.thingiverse.com/thing:2505369'
p1995
aS'https://www.thingiverse.com/thing:1758980'
p1996
aS'https://www.thingiverse.com/thing:2396264'
p1997
aS'https://www.thingiverse.com/thing:2505568'
p1998
aS'https://www.thingiverse.com/thing:2187608'
p1999
aS'https://www.thingiverse.com/thing:2421704'
p2000
aS'https://www.thingiverse.com/thing:2482163'
p2001
aS'https://www.thingiverse.com/thing:637472'
p2002
aS'https://www.thingiverse.com/thing:17693'
p2003
aS'https://www.thingiverse.com/thing:1216409'
p2004
aS'https://www.thingiverse.com/thing:2325640'
p2005
aS'https://www.thingiverse.com/thing:2194278'
p2006
aS'https://www.thingiverse.com/thing:2358425'
p2007
aS'https://www.thingiverse.com/thing:2266172'
p2008
aS'https://www.thingiverse.com/thing:282337'
p2009
aS'https://www.thingiverse.com/thing:612564'
p2010
aS'https://www.thingiverse.com/thing:529661'
p2011
aS'https://www.thingiverse.com/thing:444267'
p2012
aS'https://www.thingiverse.com/thing:2205301'
p2013
aS'https://www.thingiverse.com/thing:1847983'
p2014
aS'https://www.thingiverse.com/thing:2260101'
p2015
aS'https://www.thingiverse.com/thing:185125'
p2016
aS'https://www.thingiverse.com/thing:2510589'
p2017
aS'https://www.thingiverse.com/thing:196135'
p2018
aS'https://www.thingiverse.com/thing:404014'
p2019
aS'https://www.thingiverse.com/thing:953918'
p2020
aS'https://www.thingiverse.com/thing:2438336'
p2021
aS'https://www.thingiverse.com/thing:1382841'
p2022
aS'https://www.thingiverse.com/thing:750360'
p2023
aS'https://www.thingiverse.com/thing:2044074'
p2024
aS'https://www.thingiverse.com/thing:913316'
p2025
aS'https://www.thingiverse.com/thing:2506591'
p2026
aS'https://www.thingiverse.com/thing:2481410'
p2027
aS'https://www.thingiverse.com/thing:1675744'
p2028
aS'https://www.thingiverse.com/thing:605577'
p2029
aS'https://www.thingiverse.com/thing:537918'
p2030
aS'https://www.thingiverse.com/thing:2356445'
p2031
aS'https://www.thingiverse.com/thing:2016098'
p2032
aS'https://www.thingiverse.com/thing:735038'
p2033
aS'https://www.thingiverse.com/thing:1452105'
p2034
aS'https://www.thingiverse.com/thing:260152'
p2035
aS'https://www.thingiverse.com/thing:2269086'
p2036
aS'https://www.thingiverse.com/thing:2245935'
p2037
aS'https://www.thingiverse.com/thing:2248733'
p2038
aS'https://www.thingiverse.com/thing:1752766'
p2039
aS'https://www.thingiverse.com/thing:952393'
p2040
aS'https://www.thingiverse.com/thing:2480323'
p2041
aS'https://www.thingiverse.com/thing:2503421'
p2042
aS'https://www.thingiverse.com/thing:13053'
p2043
aS'https://www.thingiverse.com/thing:272234'
p2044
aS'https://www.thingiverse.com/thing:2497987'
p2045
aS'https://www.thingiverse.com/thing:2481639'
p2046
aS'https://www.thingiverse.com/thing:376601'
p2047
aS'https://www.thingiverse.com/thing:909118'
p2048
aS'https://www.thingiverse.com/thing:60778'
p2049
aS'https://www.thingiverse.com/thing:2497877'
p2050
aS'https://www.thingiverse.com/thing:2483392'
p2051
aS'https://www.thingiverse.com/thing:2041575'
p2052
aS'https://www.thingiverse.com/thing:798751'
p2053
aS'https://www.thingiverse.com/thing:2178585'
p2054
aS'https://www.thingiverse.com/thing:1015554'
p2055
aS'https://www.thingiverse.com/thing:952885'
p2056
aS'https://www.thingiverse.com/thing:801162'
p2057
aS'https://www.thingiverse.com/thing:2490401'
p2058
aS'https://www.thingiverse.com/thing:780404'
p2059
aS'https://www.thingiverse.com/thing:963892'
p2060
aS'https://www.thingiverse.com/thing:155887'
p2061
aS'https://www.thingiverse.com/thing:39680'
p2062
aS'https://www.thingiverse.com/thing:2308249'
p2063
aS'https://www.thingiverse.com/thing:2488689'
p2064
aS'https://www.thingiverse.com/thing:1362586'
p2065
aS'https://www.thingiverse.com/thing:1218749'
p2066
aS'https://www.thingiverse.com/thing:2511408'
p2067
aS'https://www.thingiverse.com/thing:1944905'
p2068
aS'https://www.thingiverse.com/thing:21486'
p2069
aS'https://www.thingiverse.com/thing:2517118'
p2070
aS'https://www.thingiverse.com/thing:2490667'
p2071
aS'https://www.thingiverse.com/thing:1943171'
p2072
aS'https://www.thingiverse.com/thing:501495'
p2073
aS'https://www.thingiverse.com/thing:1826018'
p2074
aS'https://www.thingiverse.com/thing:37926'
p2075
aS'https://www.thingiverse.com/thing:197992'
p2076
aS'https://www.thingiverse.com/thing:2495345'
p2077
aS'https://www.thingiverse.com/thing:962416'
p2078
aS'https://www.thingiverse.com/thing:49263'
p2079
aS'https://www.thingiverse.com/thing:1646315'
p2080
aS'https://www.thingiverse.com/thing:360108'
p2081
aS'https://www.thingiverse.com/thing:307775'
p2082
aS'https://www.thingiverse.com/thing:2369887'
p2083
aS'https://www.thingiverse.com/thing:213946'
p2084
aS'https://www.thingiverse.com/thing:418975'
p2085
aS'https://www.thingiverse.com/thing:11742'
p2086
aS'https://www.thingiverse.com/thing:558939'
p2087
aS'https://www.thingiverse.com/thing:470700'
p2088
aS'https://www.thingiverse.com/thing:1015178'
p2089
aS'https://www.thingiverse.com/thing:1711097'
p2090
aS'https://www.thingiverse.com/thing:2365478'
p2091
aS'https://www.thingiverse.com/thing:1621387'
p2092
aS'https://www.thingiverse.com/thing:338808'
p2093
aS'https://www.thingiverse.com/thing:332507'
p2094
aS'https://www.thingiverse.com/thing:2512879'
p2095
aS'https://www.thingiverse.com/thing:788448'
p2096
aS'https://www.thingiverse.com/thing:906745'
p2097
aS'https://www.thingiverse.com/thing:2382087'
p2098
aS'https://www.thingiverse.com/thing:1008941'
p2099
aS'https://www.thingiverse.com/thing:269463'
p2100
aS'https://www.thingiverse.com/thing:439657'
p2101
aS'https://www.thingiverse.com/thing:1977997'
p2102
aS'https://www.thingiverse.com/thing:2491917'
p2103
aS'https://www.thingiverse.com/thing:2491916'
p2104
aS'https://www.thingiverse.com/thing:99132'
p2105
aS'https://www.thingiverse.com/thing:1221911'
p2106
aS'https://www.thingiverse.com/thing:2263274'
p2107
aS'https://www.thingiverse.com/thing:711970'
p2108
aS'https://www.thingiverse.com/thing:906692'
p2109
aS'https://www.thingiverse.com/thing:418777'
p2110
aS'https://www.thingiverse.com/thing:2507089'
p2111
aS'https://www.thingiverse.com/thing:1256348'
p2112
aS'https://www.thingiverse.com/thing:175825'
p2113
aS'https://www.thingiverse.com/thing:710913'
p2114
aS'https://www.thingiverse.com/thing:608121'
p2115
aS'https://www.thingiverse.com/thing:1460364'
p2116
aS'https://www.thingiverse.com/thing:161190'
p2117
aS'https://www.thingiverse.com/thing:2056714'
p2118
aS'https://www.thingiverse.com/thing:308335'
p2119
aS'https://www.thingiverse.com/thing:58218'
p2120
aS'https://www.thingiverse.com/thing:48235'
p2121
aS'https://www.thingiverse.com/thing:1328241'
p2122
aS'https://www.thingiverse.com/thing:2245289'
p2123
aS'https://www.thingiverse.com/thing:644370'
p2124
aS'https://www.thingiverse.com/thing:52946'
p2125
aS'https://www.thingiverse.com/thing:2242903'
p2126
aS'https://www.thingiverse.com/thing:1491281'
p2127
aS'https://www.thingiverse.com/thing:278422'
p2128
aS'https://www.thingiverse.com/thing:2504195'
p2129
aS'https://www.thingiverse.com/thing:2358168'
p2130
aS'https://www.thingiverse.com/thing:50300'
p2131
aS'https://www.thingiverse.com/thing:655727'
p2132
aS'https://www.thingiverse.com/thing:503766'
p2133
aS'https://www.thingiverse.com/thing:2257495'
p2134
aS'https://www.thingiverse.com/thing:1316981'
p2135
aS'https://www.thingiverse.com/thing:2474368'
p2136
aS'https://www.thingiverse.com/thing:51966'
p2137
aS'https://www.thingiverse.com/thing:513900'
p2138
aS'https://www.thingiverse.com/thing:42570'
p2139
aS'https://www.thingiverse.com/thing:900340'
p2140
aS'https://www.thingiverse.com/thing:2460840'
p2141
aS'https://www.thingiverse.com/thing:2421936'
p2142
aS'https://www.thingiverse.com/thing:525664'
p2143
aS'https://www.thingiverse.com/thing:206159'
p2144
aS'https://www.thingiverse.com/thing:2514137'
p2145
aS'https://www.thingiverse.com/thing:2479044'
p2146
aS'https://www.thingiverse.com/thing:143991'
p2147
aS'https://www.thingiverse.com/thing:2479517'
p2148
aS'https://www.thingiverse.com/thing:440171'
p2149
aS'https://www.thingiverse.com/thing:389075'
p2150
aS'https://www.thingiverse.com/thing:310476'
p2151
aS'https://www.thingiverse.com/thing:942891'
p2152
aS'https://www.thingiverse.com/thing:456900'
p2153
aS'https://www.thingiverse.com/thing:2482372'
p2154
aS'https://www.thingiverse.com/thing:2357478'
p2155
aS'https://www.thingiverse.com/thing:1289250'
p2156
aS'https://www.thingiverse.com/thing:908561'
p2157
aS'https://www.thingiverse.com/thing:2482979'
p2158
aS'https://www.thingiverse.com/thing:1709302'
p2159
aS'https://www.thingiverse.com/thing:34778'
p2160
aS'https://www.thingiverse.com/thing:572208'
p2161
aS'https://www.thingiverse.com/thing:2052722'
p2162
aS'https://www.thingiverse.com/thing:346351'
p2163
aS'https://www.thingiverse.com/thing:2398762'
p2164
aS'https://www.thingiverse.com/thing:961630'
p2165
aS'https://www.thingiverse.com/thing:1234564'
p2166
aS'https://www.thingiverse.com/thing:32189'
p2167
aS'https://www.thingiverse.com/thing:49865'
p2168
aS'https://www.thingiverse.com/thing:158300'
p2169
aS'https://www.thingiverse.com/thing:2301843'
p2170
aS'https://www.thingiverse.com/thing:403110'
p2171
aS'https://www.thingiverse.com/thing:23365'
p2172
aS'https://www.thingiverse.com/thing:2405812'
p2173
aS'https://www.thingiverse.com/thing:2515988'
p2174
aS'https://www.thingiverse.com/thing:1289078'
p2175
aS'https://www.thingiverse.com/thing:38108'
p2176
aS'https://www.thingiverse.com/thing:2458437'
p2177
aS'https://www.thingiverse.com/thing:1094138'
p2178
aS'https://www.thingiverse.com/thing:230139'
p2179
aS'https://www.thingiverse.com/thing:943700'
p2180
aS'https://www.thingiverse.com/thing:537582'
p2181
aS'https://www.thingiverse.com/thing:2301603'
p2182
aS'https://www.thingiverse.com/thing:2489336'
p2183
aS'https://www.thingiverse.com/thing:1795926'
p2184
aS'https://www.thingiverse.com/thing:31722'
p2185
aS'https://www.thingiverse.com/thing:1024834'
p2186
aS'https://www.thingiverse.com/thing:255493'
p2187
aS'https://www.thingiverse.com/thing:749539'
p2188
aS'https://www.thingiverse.com/thing:28447'
p2189
aS'https://www.thingiverse.com/thing:401545'
p2190
aS'https://www.thingiverse.com/thing:2476868'
p2191
aS'https://www.thingiverse.com/thing:33902'
p2192
aS'https://www.thingiverse.com/thing:2446611'
p2193
aS'https://www.thingiverse.com/thing:1133207'
p2194
aS'https://www.thingiverse.com/thing:217280'
p2195
aS'https://www.thingiverse.com/thing:2473449'
p2196
aS'https://www.thingiverse.com/thing:153977'
p2197
aS'https://www.thingiverse.com/thing:2503506'
p2198
aS'https://www.thingiverse.com/thing:925556'
p2199
aS'https://www.thingiverse.com/thing:2398013'
p2200
aS'https://www.thingiverse.com/thing:2004629'
p2201
aS'https://www.thingiverse.com/thing:672343'
p2202
aS'https://www.thingiverse.com/thing:813368'
p2203
aS'https://www.thingiverse.com/thing:2485741'
p2204
aS'https://www.thingiverse.com/thing:201097'
p2205
aS'https://www.thingiverse.com/thing:2245493'
p2206
aS'https://www.thingiverse.com/thing:2037118'
p2207
aS'https://www.thingiverse.com/thing:139268'
p2208
aS'https://www.thingiverse.com/thing:1999888'
p2209
aS'https://www.thingiverse.com/thing:2510938'
p2210
aS'https://www.thingiverse.com/thing:2056923'
p2211
aS'https://www.thingiverse.com/thing:733823'
p2212
aS'https://www.thingiverse.com/thing:753337'
p2213
aS'https://www.thingiverse.com/thing:2233139'
p2214
aS'https://www.thingiverse.com/thing:956359'
p2215
aS'https://www.thingiverse.com/thing:2473121'
p2216
aS'https://www.thingiverse.com/thing:2498665'
p2217
aS'https://www.thingiverse.com/thing:153374'
p2218
aS'https://www.thingiverse.com/thing:2178466'
p2219
aS'https://www.thingiverse.com/thing:83024'
p2220
aS'https://www.thingiverse.com/thing:215703'
p2221
aS'https://www.thingiverse.com/thing:86476'
p2222
aS'https://www.thingiverse.com/thing:2360230'
p2223
aS'https://www.thingiverse.com/thing:2015343'
p2224
aS'https://www.thingiverse.com/thing:2440063'
p2225
aS'https://www.thingiverse.com/thing:382485'
p2226
aS'https://www.thingiverse.com/thing:2031829'
p2227
aS'https://www.thingiverse.com/thing:2506708'
p2228
aS'https://www.thingiverse.com/thing:2506705'
p2229
aS'https://www.thingiverse.com/thing:730199'
p2230
aS'https://www.thingiverse.com/thing:120128'
p2231
aS'https://www.thingiverse.com/thing:1977727'
p2232
aS'https://www.thingiverse.com/thing:615256'
p2233
aS'https://www.thingiverse.com/thing:2467301'
p2234
aS'https://www.thingiverse.com/thing:474748'
p2235
aS'https://www.thingiverse.com/thing:2288314'
p2236
aS'https://www.thingiverse.com/thing:1159436'
p2237
aS'https://www.thingiverse.com/thing:1422963'
p2238
aS'https://www.thingiverse.com/thing:1693444'
p2239
aS'https://www.thingiverse.com/thing:227356'
p2240
aS'https://www.thingiverse.com/thing:2500855'
p2241
aS'https://www.thingiverse.com/thing:2499624'
p2242
aS'https://www.thingiverse.com/thing:2487484'
p2243
aS'https://www.thingiverse.com/thing:2086867'
p2244
aS'https://www.thingiverse.com/thing:2222300'
p2245
aS'https://www.thingiverse.com/thing:119940'
p2246
aS'https://www.thingiverse.com/thing:1446506'
p2247
aS'https://www.thingiverse.com/thing:775636'
p2248
aS'https://www.thingiverse.com/thing:2488693'
p2249
aS'https://www.thingiverse.com/thing:2498688'
p2250
aS'https://www.thingiverse.com/thing:334711'
p2251
aS'https://www.thingiverse.com/thing:314910'
p2252
aS'https://www.thingiverse.com/thing:2517563'
p2253
aS'https://www.thingiverse.com/thing:1085472'
p2254
aS'https://www.thingiverse.com/thing:403766'
p2255
aS'https://www.thingiverse.com/thing:2274662'
p2256
aS'https://www.thingiverse.com/thing:932732'
p2257
aS'https://www.thingiverse.com/thing:1433295'
p2258
aS'https://www.thingiverse.com/thing:2271349'
p2259
aS'https://www.thingiverse.com/thing:769137'
p2260
aS'https://www.thingiverse.com/thing:2498530'
p2261
aS'https://www.thingiverse.com/thing:486731'
p2262
aS'https://www.thingiverse.com/thing:1092181'
p2263
aS'https://www.thingiverse.com/thing:2491635'
p2264
aS'https://www.thingiverse.com/thing:2491636'
p2265
aS'https://www.thingiverse.com/thing:2489852'
p2266
aS'https://www.thingiverse.com/thing:2512317'
p2267
aS'https://www.thingiverse.com/thing:644968'
p2268
aS'https://www.thingiverse.com/thing:13951'
p2269
aS'https://www.thingiverse.com/thing:579768'
p2270
aS'https://www.thingiverse.com/thing:2315074'
p2271
aS'https://www.thingiverse.com/thing:2039498'
p2272
aS'https://www.thingiverse.com/thing:2496595'
p2273
aS'https://www.thingiverse.com/thing:1425011'
p2274
aS'https://www.thingiverse.com/thing:911985'
p2275
aS'https://www.thingiverse.com/thing:2487118'
p2276
aS'https://www.thingiverse.com/thing:573333'
p2277
aS'https://www.thingiverse.com/thing:48087'
p2278
aS'https://www.thingiverse.com/thing:2221391'
p2279
aS'https://www.thingiverse.com/thing:596966'
p2280
aS'https://www.thingiverse.com/thing:763726'
p2281
aS'https://www.thingiverse.com/thing:212824'
p2282
aS'https://www.thingiverse.com/thing:811271'
p2283
aS'https://www.thingiverse.com/thing:593132'
p2284
aS'https://www.thingiverse.com/thing:120179'
p2285
aS'https://www.thingiverse.com/thing:2009549'
p2286
aS'https://www.thingiverse.com/thing:2246631'
p2287
aS'https://www.thingiverse.com/thing:2517831'
p2288
aS'https://www.thingiverse.com/thing:432178'
p2289
aS'https://www.thingiverse.com/thing:1777105'
p2290
aS'https://www.thingiverse.com/thing:161186'
p2291
aS'https://www.thingiverse.com/thing:213990'
p2292
aS'https://www.thingiverse.com/thing:1657791'
p2293
aS'https://www.thingiverse.com/thing:2340475'
p2294
aS'https://www.thingiverse.com/thing:151081'
p2295
aS'https://www.thingiverse.com/thing:2479728'
p2296
aS'https://www.thingiverse.com/thing:738511'
p2297
aS'https://www.thingiverse.com/thing:586169'
p2298
aS'https://www.thingiverse.com/thing:767995'
p2299
aS'https://www.thingiverse.com/thing:533472'
p2300
aS'https://www.thingiverse.com/thing:1655134'
p2301
aS'https://www.thingiverse.com/thing:897412'
p2302
aS'https://www.thingiverse.com/thing:2504160'
p2303
aS'https://www.thingiverse.com/thing:2486040'
p2304
aS'https://www.thingiverse.com/thing:487065'
p2305
aS'https://www.thingiverse.com/thing:1002565'
p2306
aS'https://www.thingiverse.com/thing:2474753'
p2307
aS'https://www.thingiverse.com/thing:2494567'
p2308
aS'https://www.thingiverse.com/thing:2491797'
p2309
aS'https://www.thingiverse.com/thing:449424'
p2310
aS'https://www.thingiverse.com/thing:2478833'
p2311
aS'https://www.thingiverse.com/thing:2178265'
p2312
aS'https://www.thingiverse.com/thing:2064269'
p2313
aS'https://www.thingiverse.com/thing:2483964'
p2314
aS'https://www.thingiverse.com/thing:2493188'
p2315
aS'https://www.thingiverse.com/thing:906098'
p2316
aS'https://www.thingiverse.com/thing:2186997'
p2317
aS'https://www.thingiverse.com/thing:2221647'
p2318
aS'https://www.thingiverse.com/thing:137582'
p2319
aS'https://www.thingiverse.com/thing:2263073'
p2320
aS'https://www.thingiverse.com/thing:467074'
p2321
aS'https://www.thingiverse.com/thing:341719'
p2322
aS'https://www.thingiverse.com/thing:2358331'
p2323
aS'https://www.thingiverse.com/thing:740357'
p2324
aS'https://www.thingiverse.com/thing:2432481'
p2325
aS'https://www.thingiverse.com/thing:456919'
p2326
aS'https://www.thingiverse.com/thing:891278'
p2327
aS'https://www.thingiverse.com/thing:697835'
p2328
aS'https://www.thingiverse.com/thing:2468966'
p2329
aS'https://www.thingiverse.com/thing:2498995'
p2330
aS'https://www.thingiverse.com/thing:35167'
p2331
aS'https://www.thingiverse.com/thing:2491795'
p2332
aS'https://www.thingiverse.com/thing:2485536'
p2333
aS'https://www.thingiverse.com/thing:854575'
p2334
aS'https://www.thingiverse.com/thing:1367185'
p2335
aS'https://www.thingiverse.com/thing:708666'
p2336
aS'https://www.thingiverse.com/thing:2485538'
p2337
aS'https://www.thingiverse.com/thing:1580899'
p2338
aS'https://www.thingiverse.com/thing:2492768'
p2339
aS'https://www.thingiverse.com/thing:2434419'
p2340
aS'https://www.thingiverse.com/thing:507326'
p2341
aS'https://www.thingiverse.com/thing:410003'
p2342
aS'https://www.thingiverse.com/thing:2475978'
p2343
aS'https://www.thingiverse.com/thing:324077'
p2344
aS'https://www.thingiverse.com/thing:150686'
p2345
aS'https://www.thingiverse.com/thing:2429184'
p2346
aS'https://www.thingiverse.com/thing:627496'
p2347
aS'https://www.thingiverse.com/thing:31536'
p2348
aS'https://www.thingiverse.com/thing:2468367'
p2349
aS'https://www.thingiverse.com/thing:662447'
p2350
aS'https://www.thingiverse.com/thing:1912559'
p2351
aS'https://www.thingiverse.com/thing:1078216'
p2352
aS'https://www.thingiverse.com/thing:1554756'
p2353
aS'https://www.thingiverse.com/thing:2515519'
p2354
aS'https://www.thingiverse.com/thing:349643'
p2355
aS'https://www.thingiverse.com/thing:2493568'
p2356
aS'https://www.thingiverse.com/thing:2475791'
p2357
aS'https://www.thingiverse.com/thing:2453381'
p2358
aS'https://www.thingiverse.com/thing:2515866'
p2359
aS'https://www.thingiverse.com/thing:58776'
p2360
aS'https://www.thingiverse.com/thing:939901'
p2361
aS'https://www.thingiverse.com/thing:1000012'
p2362
aS'https://www.thingiverse.com/thing:2476075'
p2363
aS'https://www.thingiverse.com/thing:2484754'
p2364
aS'https://www.thingiverse.com/thing:523897'
p2365
aS'https://www.thingiverse.com/thing:330151'
p2366
aS'https://www.thingiverse.com/thing:2412432'
p2367
aS'https://www.thingiverse.com/thing:196039'
p2368
aS'https://www.thingiverse.com/thing:1031950'
p2369
aS'https://www.thingiverse.com/thing:328523'
p2370
aS'https://www.thingiverse.com/thing:2402254'
p2371
aS'https://www.thingiverse.com/thing:2485625'
p2372
aS'https://www.thingiverse.com/thing:2122497'
p2373
aS'https://www.thingiverse.com/thing:321812'
p2374
aS'https://www.thingiverse.com/thing:1240754'
p2375
aS'https://www.thingiverse.com/thing:1597835'
p2376
aS'https://www.thingiverse.com/thing:2513453'
p2377
aS'https://www.thingiverse.com/thing:133752'
p2378
aS'https://www.thingiverse.com/thing:375589'
p2379
aS'https://www.thingiverse.com/thing:425353'
p2380
aS'https://www.thingiverse.com/thing:2506443'
p2381
aS'https://www.thingiverse.com/thing:358837'
p2382
aS'https://www.thingiverse.com/thing:615451'
p2383
aS'https://www.thingiverse.com/thing:123282'
p2384
aS'https://www.thingiverse.com/thing:2472536'
p2385
aS'https://www.thingiverse.com/thing:236151'
p2386
aS'https://www.thingiverse.com/thing:2454649'
p2387
aS'https://www.thingiverse.com/thing:14328'
p2388
aS'https://www.thingiverse.com/thing:33804'
p2389
aS'https://www.thingiverse.com/thing:12146'
p2390
aS'https://www.thingiverse.com/thing:961176'
p2391
aS'https://www.thingiverse.com/thing:253934'
p2392
aS'https://www.thingiverse.com/thing:268090'
p2393
aS'https://www.thingiverse.com/thing:2072360'
p2394
aS'https://www.thingiverse.com/thing:2071943'
p2395
aS'https://www.thingiverse.com/thing:2112440'
p2396
aS'https://www.thingiverse.com/thing:2490268'
p2397
aS'https://www.thingiverse.com/thing:2067862'
p2398
aS'https://www.thingiverse.com/thing:1477813'
p2399
aS'https://www.thingiverse.com/thing:1962118'
p2400
aS'https://www.thingiverse.com/thing:2194730'
p2401
aS'https://www.thingiverse.com/thing:2349293'
p2402
aS'https://www.thingiverse.com/thing:926794'
p2403
aS'https://www.thingiverse.com/thing:1120393'
p2404
aS'https://www.thingiverse.com/thing:478982'
p2405
aS'https://www.thingiverse.com/thing:913069'
p2406
aS'https://www.thingiverse.com/thing:2501530'
p2407
aS'https://www.thingiverse.com/thing:481268'
p2408
aS'https://www.thingiverse.com/thing:2404607'
p2409
aS'https://www.thingiverse.com/thing:2512075'
p2410
aS'https://www.thingiverse.com/thing:434600'
p2411
aS'https://www.thingiverse.com/thing:2105996'
p2412
aS'https://www.thingiverse.com/thing:266392'
p2413
aS'https://www.thingiverse.com/thing:258969'
p2414
aS'https://www.thingiverse.com/thing:1193309'
p2415
aS'https://www.thingiverse.com/thing:999176'
p2416
aS'https://www.thingiverse.com/thing:511668'
p2417
aS'https://www.thingiverse.com/thing:969358'
p2418
aS'https://www.thingiverse.com/thing:978270'
p2419
aS'https://www.thingiverse.com/thing:1957674'
p2420
aS'https://www.thingiverse.com/thing:2414276'
p2421
aS'https://www.thingiverse.com/thing:2490514'
p2422
aS'https://www.thingiverse.com/thing:2478160'
p2423
aS'https://www.thingiverse.com/thing:2487908'
p2424
aS'https://www.thingiverse.com/thing:2133815'
p2425
aS'https://www.thingiverse.com/thing:2097301'
p2426
aS'https://www.thingiverse.com/thing:2458918'
p2427
aS'https://www.thingiverse.com/thing:2480586'
p2428
aS'https://www.thingiverse.com/thing:2475498'
p2429
aS'https://www.thingiverse.com/thing:2216365'
p2430
aS'https://www.thingiverse.com/thing:2480271'
p2431
aS'https://www.thingiverse.com/thing:784951'
p2432
aS'https://www.thingiverse.com/thing:795952'
p2433
aS'https://www.thingiverse.com/thing:991405'
p2434
atp2435
Rp2436
.