c__builtin__
set
p0
((lp1
S'https://www.thingiverse.com/thing:2488664'
p2
aS'https://www.thingiverse.com/thing:1659724'
p3
aS'https://www.thingiverse.com/thing:1078661'
p4
aS'https://www.thingiverse.com/thing:1800896'
p5
aS'https://www.thingiverse.com/thing:2173745'
p6
aS'https://www.thingiverse.com/thing:2440309'
p7
aS'https://www.thingiverse.com/thing:1067086'
p8
aS'https://www.thingiverse.com/thing:2298475'
p9
aS'https://www.thingiverse.com/thing:1190787'
p10
aS'https://www.thingiverse.com/thing:1936720'
p11
aS'https://www.thingiverse.com/thing:1767153'
p12
aS'https://www.thingiverse.com/thing:1037935'
p13
aS'https://www.thingiverse.com/thing:2040446'
p14
aS'https://www.thingiverse.com/thing:2492910'
p15
aS'https://www.thingiverse.com/thing:1765832'
p16
aS'https://www.thingiverse.com/thing:2489848'
p17
aS'https://www.thingiverse.com/thing:2341844'
p18
aS'https://www.thingiverse.com/thing:2496697'
p19
aS'https://www.thingiverse.com/thing:1318849'
p20
aS'https://www.thingiverse.com/thing:2515195'
p21
aS'https://www.thingiverse.com/thing:2492221'
p22
aS'https://www.thingiverse.com/thing:1953316'
p23
aS'https://www.thingiverse.com/thing:1549466'
p24
aS'https://www.thingiverse.com/thing:2487050'
p25
aS'https://www.thingiverse.com/thing:1914138'
p26
aS'https://www.thingiverse.com/thing:2366517'
p27
aS'https://www.thingiverse.com/thing:2245428'
p28
aS'https://www.thingiverse.com/thing:2485968'
p29
aS'https://www.thingiverse.com/thing:1165406'
p30
aS'https://www.thingiverse.com/thing:1356547'
p31
aS'https://www.thingiverse.com/thing:2018906'
p32
aS'https://www.thingiverse.com/thing:2138421'
p33
aS'https://www.thingiverse.com/thing:2496074'
p34
aS'https://www.thingiverse.com/thing:2146430'
p35
aS'https://www.thingiverse.com/thing:2275122'
p36
aS'https://www.thingiverse.com/thing:2510588'
p37
aS'https://www.thingiverse.com/thing:903411'
p38
aS'https://www.thingiverse.com/thing:1810109'
p39
aS'https://www.thingiverse.com/thing:2507573'
p40
aS'https://www.thingiverse.com/thing:2000523'
p41
aS'https://www.thingiverse.com/thing:2055827'
p42
aS'https://www.thingiverse.com/thing:2508121'
p43
aS'https://www.thingiverse.com/thing:2459767'
p44
aS'https://www.thingiverse.com/thing:2483573'
p45
aS'https://www.thingiverse.com/thing:2002744'
p46
aS'https://www.thingiverse.com/thing:2417692'
p47
aS'https://www.thingiverse.com/thing:2508722'
p48
aS'https://www.thingiverse.com/thing:2136805'
p49
aS'https://www.thingiverse.com/thing:1940114'
p50
aS'https://www.thingiverse.com/thing:2091529'
p51
aS'https://www.thingiverse.com/thing:2184575'
p52
aS'https://www.thingiverse.com/thing:1147822'
p53
aS'https://www.thingiverse.com/thing:1832235'
p54
aS'https://www.thingiverse.com/thing:1177619'
p55
aS'https://www.thingiverse.com/thing:2469775'
p56
aS'https://www.thingiverse.com/thing:1763508'
p57
aS'https://www.thingiverse.com/thing:2043548'
p58
aS'https://www.thingiverse.com/thing:2437440'
p59
aS'https://www.thingiverse.com/thing:1896013'
p60
aS'https://www.thingiverse.com/thing:1083713'
p61
aS'https://www.thingiverse.com/thing:2305368'
p62
aS'https://www.thingiverse.com/thing:580466'
p63
aS'https://www.thingiverse.com/thing:2456077'
p64
aS'https://www.thingiverse.com/thing:2319951'
p65
aS'https://www.thingiverse.com/thing:2494514'
p66
aS'https://www.thingiverse.com/thing:2359634'
p67
aS'https://www.thingiverse.com/thing:2014307'
p68
aS'https://www.thingiverse.com/thing:1259799'
p69
aS'https://www.thingiverse.com/thing:1672959'
p70
aS'https://www.thingiverse.com/thing:2446453'
p71
aS'https://www.thingiverse.com/thing:2465016'
p72
aS'https://www.thingiverse.com/thing:1347886'
p73
aS'https://www.thingiverse.com/thing:2492772'
p74
aS'https://www.thingiverse.com/thing:2433967'
p75
aS'https://www.thingiverse.com/thing:2510002'
p76
aS'https://www.thingiverse.com/thing:1764285'
p77
aS'https://www.thingiverse.com/thing:2008193'
p78
aS'https://www.thingiverse.com/thing:2515857'
p79
aS'https://www.thingiverse.com/thing:2446587'
p80
aS'https://www.thingiverse.com/thing:2515850'
p81
aS'https://www.thingiverse.com/thing:2291602'
p82
aS'https://www.thingiverse.com/thing:2067676'
p83
aS'https://www.thingiverse.com/thing:2504950'
p84
aS'https://www.thingiverse.com/thing:2005640'
p85
aS'https://www.thingiverse.com/thing:2438671'
p86
aS'https://www.thingiverse.com/thing:1524455'
p87
aS'https://www.thingiverse.com/thing:2516954'
p88
aS'https://www.thingiverse.com/thing:1276711'
p89
aS'https://www.thingiverse.com/thing:2422228'
p90
aS'https://www.thingiverse.com/thing:1340784'
p91
aS'https://www.thingiverse.com/thing:1363023'
p92
aS'https://www.thingiverse.com/thing:2480119'
p93
aS'https://www.thingiverse.com/thing:2485766'
p94
aS'https://www.thingiverse.com/thing:2506946'
p95
aS'https://www.thingiverse.com/thing:1769641'
p96
aS'https://www.thingiverse.com/thing:2448516'
p97
aS'https://www.thingiverse.com/thing:1188083'
p98
aS'https://www.thingiverse.com/thing:2477621'
p99
aS'https://www.thingiverse.com/thing:1369886'
p100
aS'https://www.thingiverse.com/thing:1081535'
p101
aS'https://www.thingiverse.com/thing:2510861'
p102
aS'https://www.thingiverse.com/thing:2450705'
p103
aS'https://www.thingiverse.com/thing:2097460'
p104
aS'https://www.thingiverse.com/thing:2352425'
p105
aS'https://www.thingiverse.com/thing:2476441'
p106
aS'https://www.thingiverse.com/thing:2501525'
p107
aS'https://www.thingiverse.com/thing:1803120'
p108
aS'https://www.thingiverse.com/thing:2502655'
p109
aS'https://www.thingiverse.com/thing:2502654'
p110
aS'https://www.thingiverse.com/thing:2502657'
p111
aS'https://www.thingiverse.com/thing:1317732'
p112
aS'https://www.thingiverse.com/thing:1775502'
p113
aS'https://www.thingiverse.com/thing:2506094'
p114
aS'https://www.thingiverse.com/thing:2248709'
p115
aS'https://www.thingiverse.com/thing:2490328'
p116
aS'https://www.thingiverse.com/thing:2432999'
p117
aS'https://www.thingiverse.com/thing:2455390'
p118
aS'https://www.thingiverse.com/thing:1666929'
p119
aS'https://www.thingiverse.com/thing:2506361'
p120
aS'https://www.thingiverse.com/thing:2487268'
p121
aS'https://www.thingiverse.com/thing:1429684'
p122
aS'https://www.thingiverse.com/thing:2420432'
p123
aS'https://www.thingiverse.com/thing:2480645'
p124
aS'https://www.thingiverse.com/thing:2099154'
p125
aS'https://www.thingiverse.com/thing:1959208'
p126
aS'https://www.thingiverse.com/thing:1790624'
p127
aS'https://www.thingiverse.com/thing:2499434'
p128
aS'https://www.thingiverse.com/thing:1720118'
p129
aS'https://www.thingiverse.com/thing:2497936'
p130
aS'https://www.thingiverse.com/thing:2467743'
p131
aS'https://www.thingiverse.com/thing:2020947'
p132
aS'https://www.thingiverse.com/thing:2030176'
p133
aS'https://www.thingiverse.com/thing:2480487'
p134
aS'https://www.thingiverse.com/thing:2050885'
p135
aS'https://www.thingiverse.com/thing:2445563'
p136
aS'https://www.thingiverse.com/thing:1665478'
p137
aS'https://www.thingiverse.com/thing:2459371'
p138
aS'https://www.thingiverse.com/thing:2158108'
p139
aS'https://www.thingiverse.com/thing:1935572'
p140
aS'https://www.thingiverse.com/thing:1298948'
p141
aS'https://www.thingiverse.com/thing:2226908'
p142
aS'https://www.thingiverse.com/thing:2512335'
p143
aS'https://www.thingiverse.com/thing:1466370'
p144
aS'https://www.thingiverse.com/thing:2381728'
p145
aS'https://www.thingiverse.com/thing:1222591'
p146
aS'https://www.thingiverse.com/thing:2411078'
p147
aS'https://www.thingiverse.com/thing:2507386'
p148
aS'https://www.thingiverse.com/thing:2459577'
p149
aS'https://www.thingiverse.com/thing:1296677'
p150
aS'https://www.thingiverse.com/thing:1311108'
p151
aS'https://www.thingiverse.com/thing:1923333'
p152
aS'https://www.thingiverse.com/thing:2366523'
p153
aS'https://www.thingiverse.com/thing:1667417'
p154
aS'https://www.thingiverse.com/thing:1340209'
p155
aS'https://www.thingiverse.com/thing:1745261'
p156
aS'https://www.thingiverse.com/thing:75582'
p157
aS'https://www.thingiverse.com/thing:2474171'
p158
aS'https://www.thingiverse.com/thing:1097099'
p159
aS'https://www.thingiverse.com/thing:1165227'
p160
aS'https://www.thingiverse.com/thing:2003996'
p161
aS'https://www.thingiverse.com/thing:1134611'
p162
aS'https://www.thingiverse.com/thing:1147252'
p163
aS'https://www.thingiverse.com/thing:2451368'
p164
aS'https://www.thingiverse.com/thing:2336275'
p165
aS'https://www.thingiverse.com/thing:2495256'
p166
aS'https://www.thingiverse.com/thing:1024366'
p167
aS'https://www.thingiverse.com/thing:2361785'
p168
aS'https://www.thingiverse.com/thing:2492366'
p169
aS'https://www.thingiverse.com/thing:2249600'
p170
aS'https://www.thingiverse.com/thing:1829810'
p171
aS'https://www.thingiverse.com/thing:1032595'
p172
aS'https://www.thingiverse.com/thing:2024251'
p173
aS'https://www.thingiverse.com/thing:2158261'
p174
aS'https://www.thingiverse.com/thing:2485564'
p175
aS'https://www.thingiverse.com/thing:1353782'
p176
aS'https://www.thingiverse.com/thing:2145048'
p177
aS'https://www.thingiverse.com/thing:1134277'
p178
aS'https://www.thingiverse.com/thing:1683409'
p179
aS'https://www.thingiverse.com/thing:2172882'
p180
aS'https://www.thingiverse.com/thing:1688459'
p181
aS'https://www.thingiverse.com/thing:1940102'
p182
aS'https://www.thingiverse.com/thing:2332197'
p183
aS'https://www.thingiverse.com/thing:2004357'
p184
aS'https://www.thingiverse.com/thing:2518453'
p185
aS'https://www.thingiverse.com/thing:2402094'
p186
aS'https://www.thingiverse.com/thing:2508739'
p187
aS'https://www.thingiverse.com/thing:1763518'
p188
aS'https://www.thingiverse.com/thing:2482347'
p189
aS'https://www.thingiverse.com/thing:1383913'
p190
aS'https://www.thingiverse.com/thing:2500269'
p191
aS'https://www.thingiverse.com/thing:2482349'
p192
aS'https://www.thingiverse.com/thing:2475425'
p193
aS'https://www.thingiverse.com/thing:1798616'
p194
aS'https://www.thingiverse.com/thing:2474950'
p195
aS'https://www.thingiverse.com/thing:2515445'
p196
aS'https://www.thingiverse.com/thing:2486733'
p197
aS'https://www.thingiverse.com/thing:2493305'
p198
aS'https://www.thingiverse.com/thing:1773465'
p199
aS'https://www.thingiverse.com/thing:2350483'
p200
aS'https://www.thingiverse.com/thing:2147179'
p201
aS'https://www.thingiverse.com/thing:2153267'
p202
aS'https://www.thingiverse.com/thing:1605373'
p203
aS'https://www.thingiverse.com/thing:2060281'
p204
aS'https://www.thingiverse.com/thing:2182276'
p205
aS'https://www.thingiverse.com/thing:2509178'
p206
aS'https://www.thingiverse.com/thing:2500482'
p207
aS'https://www.thingiverse.com/thing:2516897'
p208
aS'https://www.thingiverse.com/thing:1068688'
p209
aS'https://www.thingiverse.com/thing:2507491'
p210
aS'https://www.thingiverse.com/thing:2486883'
p211
aS'https://www.thingiverse.com/thing:2485199'
p212
aS'https://www.thingiverse.com/thing:1661962'
p213
aS'https://www.thingiverse.com/thing:2360242'
p214
aS'https://www.thingiverse.com/thing:2498222'
p215
aS'https://www.thingiverse.com/thing:2104821'
p216
aS'https://www.thingiverse.com/thing:1512228'
p217
aS'https://www.thingiverse.com/thing:1564731'
p218
aS'https://www.thingiverse.com/thing:1959787'
p219
aS'https://www.thingiverse.com/thing:2317732'
p220
aS'https://www.thingiverse.com/thing:1230580'
p221
aS'https://www.thingiverse.com/thing:1427340'
p222
aS'https://www.thingiverse.com/thing:2067396'
p223
aS'https://www.thingiverse.com/thing:2500133'
p224
aS'https://www.thingiverse.com/thing:2442301'
p225
aS'https://www.thingiverse.com/thing:2515921'
p226
aS'https://www.thingiverse.com/thing:2510789'
p227
aS'https://www.thingiverse.com/thing:1743075'
p228
aS'https://www.thingiverse.com/thing:2338127'
p229
aS'https://www.thingiverse.com/thing:2485778'
p230
aS'https://www.thingiverse.com/thing:2494300'
p231
aS'https://www.thingiverse.com/thing:2111353'
p232
aS'https://www.thingiverse.com/thing:2062447'
p233
aS'https://www.thingiverse.com/thing:2490206'
p234
aS'https://www.thingiverse.com/thing:2499574'
p235
aS'https://www.thingiverse.com/thing:1179160'
p236
aS'https://www.thingiverse.com/thing:2480816'
p237
aS'https://www.thingiverse.com/thing:2016292'
p238
aS'https://www.thingiverse.com/thing:2480072'
p239
aS'https://www.thingiverse.com/thing:1863809'
p240
aS'https://www.thingiverse.com/thing:2505852'
p241
aS'https://www.thingiverse.com/thing:2054199'
p242
aS'https://www.thingiverse.com/thing:2484552'
p243
aS'https://www.thingiverse.com/thing:2375124'
p244
aS'https://www.thingiverse.com/thing:1607283'
p245
aS'https://www.thingiverse.com/thing:2502647'
p246
aS'https://www.thingiverse.com/thing:2472806'
p247
aS'https://www.thingiverse.com/thing:2488706'
p248
aS'https://www.thingiverse.com/thing:2216743'
p249
aS'https://www.thingiverse.com/thing:1760622'
p250
aS'https://www.thingiverse.com/thing:2506770'
p251
aS'https://www.thingiverse.com/thing:2415216'
p252
aS'https://www.thingiverse.com/thing:2477543'
p253
aS'https://www.thingiverse.com/thing:1571860'
p254
aS'https://www.thingiverse.com/thing:1291800'
p255
aS'https://www.thingiverse.com/thing:1510266'
p256
aS'https://www.thingiverse.com/thing:2491790'
p257
aS'https://www.thingiverse.com/thing:2477357'
p258
aS'https://www.thingiverse.com/thing:2136686'
p259
aS'https://www.thingiverse.com/thing:2491006'
p260
aS'https://www.thingiverse.com/thing:2058190'
p261
aS'https://www.thingiverse.com/thing:1404000'
p262
aS'https://www.thingiverse.com/thing:1635810'
p263
aS'https://www.thingiverse.com/thing:2447145'
p264
aS'https://www.thingiverse.com/thing:2063412'
p265
aS'https://www.thingiverse.com/thing:2496478'
p266
aS'https://www.thingiverse.com/thing:1719132'
p267
aS'https://www.thingiverse.com/thing:1833286'
p268
aS'https://www.thingiverse.com/thing:2502706'
p269
aS'https://www.thingiverse.com/thing:2473686'
p270
aS'https://www.thingiverse.com/thing:2246840'
p271
aS'https://www.thingiverse.com/thing:2274141'
p272
aS'https://www.thingiverse.com/thing:2507176'
p273
aS'https://www.thingiverse.com/thing:2130921'
p274
aS'https://www.thingiverse.com/thing:811008'
p275
aS'https://www.thingiverse.com/thing:1374395'
p276
aS'https://www.thingiverse.com/thing:1776574'
p277
aS'https://www.thingiverse.com/thing:1076083'
p278
aS'https://www.thingiverse.com/thing:2012384'
p279
aS'https://www.thingiverse.com/thing:2443517'
p280
aS'https://www.thingiverse.com/thing:1098809'
p281
aS'https://www.thingiverse.com/thing:2518996'
p282
aS'https://www.thingiverse.com/thing:2362206'
p283
aS'https://www.thingiverse.com/thing:2334264'
p284
aS'https://www.thingiverse.com/thing:2444557'
p285
aS'https://www.thingiverse.com/thing:1852358'
p286
aS'https://www.thingiverse.com/thing:2039843'
p287
aS'https://www.thingiverse.com/thing:2503072'
p288
aS'https://www.thingiverse.com/thing:1107638'
p289
aS'https://www.thingiverse.com/thing:2350276'
p290
aS'https://www.thingiverse.com/thing:1741021'
p291
aS'https://www.thingiverse.com/thing:2274499'
p292
aS'https://www.thingiverse.com/thing:2459294'
p293
aS'https://www.thingiverse.com/thing:2451774'
p294
aS'https://www.thingiverse.com/thing:1394492'
p295
aS'https://www.thingiverse.com/thing:1821478'
p296
aS'https://www.thingiverse.com/thing:2213951'
p297
aS'https://www.thingiverse.com/thing:2436138'
p298
aS'https://www.thingiverse.com/thing:2506961'
p299
aS'https://www.thingiverse.com/thing:1750276'
p300
aS'https://www.thingiverse.com/thing:1945168'
p301
aS'https://www.thingiverse.com/thing:2432741'
p302
aS'https://www.thingiverse.com/thing:2453734'
p303
aS'https://www.thingiverse.com/thing:2504153'
p304
aS'https://www.thingiverse.com/thing:2504154'
p305
aS'https://www.thingiverse.com/thing:2299884'
p306
aS'https://www.thingiverse.com/thing:2494314'
p307
aS'https://www.thingiverse.com/thing:945156'
p308
aS'https://www.thingiverse.com/thing:2499216'
p309
aS'https://www.thingiverse.com/thing:1729011'
p310
aS'https://www.thingiverse.com/thing:2347503'
p311
aS'https://www.thingiverse.com/thing:2370946'
p312
aS'https://www.thingiverse.com/thing:2403711'
p313
aS'https://www.thingiverse.com/thing:1482617'
p314
aS'https://www.thingiverse.com/thing:2395001'
p315
aS'https://www.thingiverse.com/thing:1459758'
p316
aS'https://www.thingiverse.com/thing:1272031'
p317
aS'https://www.thingiverse.com/thing:2505737'
p318
aS'https://www.thingiverse.com/thing:1938877'
p319
aS'https://www.thingiverse.com/thing:1954001'
p320
aS'https://www.thingiverse.com/thing:2346783'
p321
aS'https://www.thingiverse.com/thing:1936196'
p322
aS'https://www.thingiverse.com/thing:2514772'
p323
aS'https://www.thingiverse.com/thing:2221564'
p324
aS'https://www.thingiverse.com/thing:1150877'
p325
aS'https://www.thingiverse.com/thing:2068177'
p326
aS'https://www.thingiverse.com/thing:1212822'
p327
aS'https://www.thingiverse.com/thing:1212828'
p328
aS'https://www.thingiverse.com/thing:1798604'
p329
aS'https://www.thingiverse.com/thing:1182945'
p330
aS'https://www.thingiverse.com/thing:2482080'
p331
aS'https://www.thingiverse.com/thing:2474432'
p332
aS'https://www.thingiverse.com/thing:2514178'
p333
aS'https://www.thingiverse.com/thing:2492798'
p334
aS'https://www.thingiverse.com/thing:2263135'
p335
aS'https://www.thingiverse.com/thing:950452'
p336
aS'https://www.thingiverse.com/thing:1264885'
p337
aS'https://www.thingiverse.com/thing:2491210'
p338
aS'https://www.thingiverse.com/thing:2186780'
p339
aS'https://www.thingiverse.com/thing:1159859'
p340
aS'https://www.thingiverse.com/thing:1003137'
p341
aS'https://www.thingiverse.com/thing:2437081'
p342
aS'https://www.thingiverse.com/thing:1866359'
p343
aS'https://www.thingiverse.com/thing:2486547'
p344
aS'https://www.thingiverse.com/thing:2106854'
p345
aS'https://www.thingiverse.com/thing:2498966'
p346
aS'https://www.thingiverse.com/thing:1645081'
p347
aS'https://www.thingiverse.com/thing:2506412'
p348
aS'https://www.thingiverse.com/thing:2477807'
p349
aS'https://www.thingiverse.com/thing:2114888'
p350
aS'https://www.thingiverse.com/thing:2515941'
p351
aS'https://www.thingiverse.com/thing:1196155'
p352
aS'https://www.thingiverse.com/thing:1913982'
p353
aS'https://www.thingiverse.com/thing:2446494'
p354
aS'https://www.thingiverse.com/thing:1507046'
p355
aS'https://www.thingiverse.com/thing:2476044'
p356
aS'https://www.thingiverse.com/thing:2404850'
p357
aS'https://www.thingiverse.com/thing:2121640'
p358
aS'https://www.thingiverse.com/thing:1805869'
p359
aS'https://www.thingiverse.com/thing:2294685'
p360
aS'https://www.thingiverse.com/thing:1764247'
p361
aS'https://www.thingiverse.com/thing:524925'
p362
aS'https://www.thingiverse.com/thing:1768975'
p363
aS'https://www.thingiverse.com/thing:1100768'
p364
aS'https://www.thingiverse.com/thing:1078106'
p365
aS'https://www.thingiverse.com/thing:2494319'
p366
aS'https://www.thingiverse.com/thing:2494642'
p367
aS'https://www.thingiverse.com/thing:1969059'
p368
aS'https://www.thingiverse.com/thing:2445212'
p369
aS'https://www.thingiverse.com/thing:1836061'
p370
aS'https://www.thingiverse.com/thing:1211594'
p371
aS'https://www.thingiverse.com/thing:2306188'
p372
aS'https://www.thingiverse.com/thing:1168279'
p373
aS'https://www.thingiverse.com/thing:74322'
p374
aS'https://www.thingiverse.com/thing:1738862'
p375
aS'https://www.thingiverse.com/thing:2484017'
p376
aS'https://www.thingiverse.com/thing:2484015'
p377
aS'https://www.thingiverse.com/thing:2425475'
p378
aS'https://www.thingiverse.com/thing:2160958'
p379
aS'https://www.thingiverse.com/thing:2498158'
p380
aS'https://www.thingiverse.com/thing:2481669'
p381
aS'https://www.thingiverse.com/thing:1779343'
p382
aS'https://www.thingiverse.com/thing:1170572'
p383
aS'https://www.thingiverse.com/thing:1736958'
p384
aS'https://www.thingiverse.com/thing:1872056'
p385
aS'https://www.thingiverse.com/thing:2354961'
p386
aS'https://www.thingiverse.com/thing:2473058'
p387
aS'https://www.thingiverse.com/thing:2477577'
p388
aS'https://www.thingiverse.com/thing:2006957'
p389
aS'https://www.thingiverse.com/thing:2502673'
p390
aS'https://www.thingiverse.com/thing:2488787'
p391
aS'https://www.thingiverse.com/thing:2197979'
p392
aS'https://www.thingiverse.com/thing:2491781'
p393
aS'https://www.thingiverse.com/thing:2491782'
p394
aS'https://www.thingiverse.com/thing:2509835'
p395
aS'https://www.thingiverse.com/thing:2472903'
p396
aS'https://www.thingiverse.com/thing:1126041'
p397
aS'https://www.thingiverse.com/thing:2472904'
p398
aS'https://www.thingiverse.com/thing:2436455'
p399
aS'https://www.thingiverse.com/thing:1585924'
p400
aS'https://www.thingiverse.com/thing:2444768'
p401
aS'https://www.thingiverse.com/thing:2009857'
p402
aS'https://www.thingiverse.com/thing:2137741'
p403
aS'https://www.thingiverse.com/thing:2055033'
p404
aS'https://www.thingiverse.com/thing:2311596'
p405
aS'https://www.thingiverse.com/thing:1458534'
p406
aS'https://www.thingiverse.com/thing:2316291'
p407
aS'https://www.thingiverse.com/thing:2502711'
p408
aS'https://www.thingiverse.com/thing:1557817'
p409
aS'https://www.thingiverse.com/thing:2224650'
p410
aS'https://www.thingiverse.com/thing:2474941'
p411
aS'https://www.thingiverse.com/thing:1551631'
p412
aS'https://www.thingiverse.com/thing:2518856'
p413
aS'https://www.thingiverse.com/thing:2038584'
p414
aS'https://www.thingiverse.com/thing:2370157'
p415
aS'https://www.thingiverse.com/thing:2488816'
p416
aS'https://www.thingiverse.com/thing:1682175'
p417
aS'https://www.thingiverse.com/thing:2469319'
p418
aS'https://www.thingiverse.com/thing:1563995'
p419
aS'https://www.thingiverse.com/thing:2444549'
p420
aS'https://www.thingiverse.com/thing:2516373'
p421
aS'https://www.thingiverse.com/thing:2400175'
p422
aS'https://www.thingiverse.com/thing:1670305'
p423
aS'https://www.thingiverse.com/thing:2471011'
p424
aS'https://www.thingiverse.com/thing:1646474'
p425
aS'https://www.thingiverse.com/thing:739573'
p426
aS'https://www.thingiverse.com/thing:1081862'
p427
aS'https://www.thingiverse.com/thing:2474157'
p428
aS'https://www.thingiverse.com/thing:2060102'
p429
aS'https://www.thingiverse.com/thing:2024308'
p430
aS'https://www.thingiverse.com/thing:2511499'
p431
aS'https://www.thingiverse.com/thing:2318886'
p432
aS'https://www.thingiverse.com/thing:2173646'
p433
aS'https://www.thingiverse.com/thing:2172068'
p434
aS'https://www.thingiverse.com/thing:1376811'
p435
aS'https://www.thingiverse.com/thing:1514145'
p436
aS'https://www.thingiverse.com/thing:1394000'
p437
aS'https://www.thingiverse.com/thing:2138128'
p438
aS'https://www.thingiverse.com/thing:2426747'
p439
aS'https://www.thingiverse.com/thing:2064029'
p440
aS'https://www.thingiverse.com/thing:2504123'
p441
aS'https://www.thingiverse.com/thing:2518183'
p442
aS'https://www.thingiverse.com/thing:1698397'
p443
aS'https://www.thingiverse.com/thing:2228511'
p444
aS'https://www.thingiverse.com/thing:2517945'
p445
aS'https://www.thingiverse.com/thing:1831295'
p446
aS'https://www.thingiverse.com/thing:2497132'
p447
aS'https://www.thingiverse.com/thing:2168903'
p448
aS'https://www.thingiverse.com/thing:2396624'
p449
aS'https://www.thingiverse.com/thing:1624844'
p450
aS'https://www.thingiverse.com/thing:2482419'
p451
aS'https://www.thingiverse.com/thing:2337890'
p452
aS'https://www.thingiverse.com/thing:1691424'
p453
aS'https://www.thingiverse.com/thing:603982'
p454
aS'https://www.thingiverse.com/thing:2459640'
p455
aS'https://www.thingiverse.com/thing:2504587'
p456
aS'https://www.thingiverse.com/thing:2008076'
p457
aS'https://www.thingiverse.com/thing:2494814'
p458
aS'https://www.thingiverse.com/thing:1068443'
p459
aS'https://www.thingiverse.com/thing:1320992'
p460
aS'https://www.thingiverse.com/thing:2482097'
p461
aS'https://www.thingiverse.com/thing:1192426'
p462
aS'https://www.thingiverse.com/thing:2449436'
p463
aS'https://www.thingiverse.com/thing:1844688'
p464
aS'https://www.thingiverse.com/thing:2424580'
p465
aS'https://www.thingiverse.com/thing:2515823'
p466
aS'https://www.thingiverse.com/thing:2016230'
p467
aS'https://www.thingiverse.com/thing:2475113'
p468
aS'https://www.thingiverse.com/thing:2483097'
p469
aS'https://www.thingiverse.com/thing:2509577'
p470
aS'https://www.thingiverse.com/thing:2482255'
p471
aS'https://www.thingiverse.com/thing:2509573'
p472
aS'https://www.thingiverse.com/thing:2485571'
p473
aS'https://www.thingiverse.com/thing:2251743'
p474
aS'https://www.thingiverse.com/thing:2494253'
p475
aS'https://www.thingiverse.com/thing:2267628'
p476
aS'https://www.thingiverse.com/thing:2493217'
p477
aS'https://www.thingiverse.com/thing:2509978'
p478
aS'https://www.thingiverse.com/thing:2475590'
p479
aS'https://www.thingiverse.com/thing:1707045'
p480
aS'https://www.thingiverse.com/thing:1697916'
p481
aS'https://www.thingiverse.com/thing:2317711'
p482
aS'https://www.thingiverse.com/thing:1489003'
p483
aS'https://www.thingiverse.com/thing:2493459'
p484
aS'https://www.thingiverse.com/thing:2500113'
p485
aS'https://www.thingiverse.com/thing:2054688'
p486
aS'https://www.thingiverse.com/thing:2121017'
p487
aS'https://www.thingiverse.com/thing:2391471'
p488
aS'https://www.thingiverse.com/thing:2459828'
p489
aS'https://www.thingiverse.com/thing:1446731'
p490
aS'https://www.thingiverse.com/thing:1899080'
p491
aS'https://www.thingiverse.com/thing:2427066'
p492
aS'https://www.thingiverse.com/thing:1642711'
p493
aS'https://www.thingiverse.com/thing:1517785'
p494
aS'https://www.thingiverse.com/thing:2505985'
p495
aS'https://www.thingiverse.com/thing:1057649'
p496
aS'https://www.thingiverse.com/thing:2159203'
p497
aS'https://www.thingiverse.com/thing:2480012'
p498
aS'https://www.thingiverse.com/thing:2339568'
p499
aS'https://www.thingiverse.com/thing:1867549'
p500
aS'https://www.thingiverse.com/thing:1469139'
p501
aS'https://www.thingiverse.com/thing:1930665'
p502
aS'https://www.thingiverse.com/thing:2481498'
p503
aS'https://www.thingiverse.com/thing:1383332'
p504
aS'https://www.thingiverse.com/thing:2499424'
p505
aS'https://www.thingiverse.com/thing:2317065'
p506
aS'https://www.thingiverse.com/thing:2211780'
p507
aS'https://www.thingiverse.com/thing:2502668'
p508
aS'https://www.thingiverse.com/thing:2297108'
p509
aS'https://www.thingiverse.com/thing:2144724'
p510
aS'https://www.thingiverse.com/thing:2489663'
p511
aS'https://www.thingiverse.com/thing:1196989'
p512
aS'https://www.thingiverse.com/thing:2473423'
p513
aS'https://www.thingiverse.com/thing:2426964'
p514
aS'https://www.thingiverse.com/thing:1176663'
p515
aS'https://www.thingiverse.com/thing:2009973'
p516
aS'https://www.thingiverse.com/thing:2219963'
p517
aS'https://www.thingiverse.com/thing:2316918'
p518
aS'https://www.thingiverse.com/thing:1962784'
p519
aS'https://www.thingiverse.com/thing:2445551'
p520
aS'https://www.thingiverse.com/thing:1952400'
p521
aS'https://www.thingiverse.com/thing:2487544'
p522
aS'https://www.thingiverse.com/thing:2490488'
p523
aS'https://www.thingiverse.com/thing:2503622'
p524
aS'https://www.thingiverse.com/thing:2460981'
p525
aS'https://www.thingiverse.com/thing:994827'
p526
aS'https://www.thingiverse.com/thing:1683764'
p527
aS'https://www.thingiverse.com/thing:1821276'
p528
aS'https://www.thingiverse.com/thing:1844556'
p529
aS'https://www.thingiverse.com/thing:2311678'
p530
aS'https://www.thingiverse.com/thing:2517628'
p531
aS'https://www.thingiverse.com/thing:2184626'
p532
aS'https://www.thingiverse.com/thing:2102532'
p533
aS'https://www.thingiverse.com/thing:1857991'
p534
aS'https://www.thingiverse.com/thing:1041635'
p535
aS'https://www.thingiverse.com/thing:1563872'
p536
aS'https://www.thingiverse.com/thing:1853287'
p537
aS'https://www.thingiverse.com/thing:2265712'
p538
aS'https://www.thingiverse.com/thing:1107654'
p539
aS'https://www.thingiverse.com/thing:2285617'
p540
aS'https://www.thingiverse.com/thing:2518172'
p541
aS'https://www.thingiverse.com/thing:2351253'
p542
aS'https://www.thingiverse.com/thing:2477078'
p543
aS'https://www.thingiverse.com/thing:1704100'
p544
aS'https://www.thingiverse.com/thing:2099577'
p545
aS'https://www.thingiverse.com/thing:2225663'
p546
aS'https://www.thingiverse.com/thing:2249215'
p547
aS'https://www.thingiverse.com/thing:1978711'
p548
aS'https://www.thingiverse.com/thing:2150276'
p549
aS'https://www.thingiverse.com/thing:1680034'
p550
aS'https://www.thingiverse.com/thing:1871579'
p551
aS'https://www.thingiverse.com/thing:2475323'
p552
aS'https://www.thingiverse.com/thing:724999'
p553
aS'https://www.thingiverse.com/thing:1666094'
p554
aS'https://www.thingiverse.com/thing:2189694'
p555
aS'https://www.thingiverse.com/thing:2002071'
p556
aS'https://www.thingiverse.com/thing:2483933'
p557
aS'https://www.thingiverse.com/thing:2493130'
p558
aS'https://www.thingiverse.com/thing:2498485'
p559
aS'https://www.thingiverse.com/thing:1718984'
p560
aS'https://www.thingiverse.com/thing:2070272'
p561
aS'https://www.thingiverse.com/thing:1463045'
p562
aS'https://www.thingiverse.com/thing:2437407'
p563
aS'https://www.thingiverse.com/thing:2471005'
p564
aS'https://www.thingiverse.com/thing:1128929'
p565
aS'https://www.thingiverse.com/thing:2478869'
p566
aS'https://www.thingiverse.com/thing:1852021'
p567
aS'https://www.thingiverse.com/thing:1385312'
p568
aS'https://www.thingiverse.com/thing:2448911'
p569
aS'https://www.thingiverse.com/thing:1878565'
p570
aS'https://www.thingiverse.com/thing:2172854'
p571
aS'https://www.thingiverse.com/thing:2302575'
p572
aS'https://www.thingiverse.com/thing:2492627'
p573
aS'https://www.thingiverse.com/thing:1427173'
p574
aS'https://www.thingiverse.com/thing:1819242'
p575
aS'https://www.thingiverse.com/thing:2479689'
p576
aS'https://www.thingiverse.com/thing:2500349'
p577
aS'https://www.thingiverse.com/thing:2482268'
p578
aS'https://www.thingiverse.com/thing:751718'
p579
aS'https://www.thingiverse.com/thing:1114319'
p580
aS'https://www.thingiverse.com/thing:2475075'
p581
aS'https://www.thingiverse.com/thing:2000231'
p582
aS'https://www.thingiverse.com/thing:1083338'
p583
aS'https://www.thingiverse.com/thing:1541512'
p584
aS'https://www.thingiverse.com/thing:2515566'
p585
aS'https://www.thingiverse.com/thing:1008456'
p586
aS'https://www.thingiverse.com/thing:2493599'
p587
aS'https://www.thingiverse.com/thing:1071493'
p588
aS'https://www.thingiverse.com/thing:2414607'
p589
aS'https://www.thingiverse.com/thing:2187167'
p590
aS'https://www.thingiverse.com/thing:2510441'
p591
aS'https://www.thingiverse.com/thing:2447167'
p592
aS'https://www.thingiverse.com/thing:2280529'
p593
aS'https://www.thingiverse.com/thing:2469310'
p594
aS'https://www.thingiverse.com/thing:602481'
p595
aS'https://www.thingiverse.com/thing:2485722'
p596
aS'https://www.thingiverse.com/thing:2236147'
p597
aS'https://www.thingiverse.com/thing:2022119'
p598
aS'https://www.thingiverse.com/thing:2241667'
p599
aS'https://www.thingiverse.com/thing:2481267'
p600
aS'https://www.thingiverse.com/thing:2103466'
p601
aS'https://www.thingiverse.com/thing:1079479'
p602
aS'https://www.thingiverse.com/thing:1798009'
p603
aS'https://www.thingiverse.com/thing:174840'
p604
aS'https://www.thingiverse.com/thing:1861871'
p605
aS'https://www.thingiverse.com/thing:2506503'
p606
aS'https://www.thingiverse.com/thing:2476792'
p607
aS'https://www.thingiverse.com/thing:1803253'
p608
aS'https://www.thingiverse.com/thing:1802260'
p609
aS'https://www.thingiverse.com/thing:2473219'
p610
aS'https://www.thingiverse.com/thing:1956539'
p611
aS'https://www.thingiverse.com/thing:2473212'
p612
aS'https://www.thingiverse.com/thing:2306072'
p613
aS'https://www.thingiverse.com/thing:921948'
p614
aS'https://www.thingiverse.com/thing:1889761'
p615
aS'https://www.thingiverse.com/thing:2007221'
p616
aS'https://www.thingiverse.com/thing:2440593'
p617
aS'https://www.thingiverse.com/thing:2481482'
p618
aS'https://www.thingiverse.com/thing:2477998'
p619
aS'https://www.thingiverse.com/thing:2481481'
p620
aS'https://www.thingiverse.com/thing:1477280'
p621
aS'https://www.thingiverse.com/thing:1780636'
p622
aS'https://www.thingiverse.com/thing:2473188'
p623
aS'https://www.thingiverse.com/thing:2006972'
p624
aS'https://www.thingiverse.com/thing:2086804'
p625
aS'https://www.thingiverse.com/thing:2480735'
p626
aS'https://www.thingiverse.com/thing:2484459'
p627
aS'https://www.thingiverse.com/thing:1956623'
p628
aS'https://www.thingiverse.com/thing:1935151'
p629
aS'https://www.thingiverse.com/thing:2489658'
p630
aS'https://www.thingiverse.com/thing:2472854'
p631
aS'https://www.thingiverse.com/thing:1834722'
p632
aS'https://www.thingiverse.com/thing:1095858'
p633
aS'https://www.thingiverse.com/thing:2459016'
p634
aS'https://www.thingiverse.com/thing:1671168'
p635
aS'https://www.thingiverse.com/thing:1496989'
p636
aS'https://www.thingiverse.com/thing:2312318'
p637
aS'https://www.thingiverse.com/thing:2115095'
p638
aS'https://www.thingiverse.com/thing:1378783'
p639
aS'https://www.thingiverse.com/thing:461272'
p640
aS'https://www.thingiverse.com/thing:2503634'
p641
aS'https://www.thingiverse.com/thing:1154832'
p642
aS'https://www.thingiverse.com/thing:1652279'
p643
aS'https://www.thingiverse.com/thing:2454404'
p644
aS'https://www.thingiverse.com/thing:1867376'
p645
aS'https://www.thingiverse.com/thing:1274297'
p646
aS'https://www.thingiverse.com/thing:1095924'
p647
aS'https://www.thingiverse.com/thing:2463427'
p648
aS'https://www.thingiverse.com/thing:2387254'
p649
aS'https://www.thingiverse.com/thing:2462065'
p650
aS'https://www.thingiverse.com/thing:1953697'
p651
aS'https://www.thingiverse.com/thing:2311840'
p652
aS'https://www.thingiverse.com/thing:1915486'
p653
aS'https://www.thingiverse.com/thing:1915956'
p654
aS'https://www.thingiverse.com/thing:2037833'
p655
aS'https://www.thingiverse.com/thing:1447214'
p656
aS'https://www.thingiverse.com/thing:743280'
p657
aS'https://www.thingiverse.com/thing:2502868'
p658
aS'https://www.thingiverse.com/thing:2225786'
p659
aS'https://www.thingiverse.com/thing:1727668'
p660
aS'https://www.thingiverse.com/thing:2416804'
p661
aS'https://www.thingiverse.com/thing:1708803'
p662
aS'https://www.thingiverse.com/thing:2512972'
p663
aS'https://www.thingiverse.com/thing:1054598'
p664
aS'https://www.thingiverse.com/thing:2456930'
p665
aS'https://www.thingiverse.com/thing:2503335'
p666
aS'https://www.thingiverse.com/thing:2171804'
p667
aS'https://www.thingiverse.com/thing:2501966'
p668
aS'https://www.thingiverse.com/thing:2462249'
p669
aS'https://www.thingiverse.com/thing:2290361'
p670
aS'https://www.thingiverse.com/thing:1692395'
p671
aS'https://www.thingiverse.com/thing:2481889'
p672
aS'https://www.thingiverse.com/thing:2516471'
p673
aS'https://www.thingiverse.com/thing:2511299'
p674
aS'https://www.thingiverse.com/thing:2185015'
p675
aS'https://www.thingiverse.com/thing:2474195'
p676
aS'https://www.thingiverse.com/thing:475672'
p677
aS'https://www.thingiverse.com/thing:2083337'
p678
aS'https://www.thingiverse.com/thing:1869706'
p679
aS'https://www.thingiverse.com/thing:2315561'
p680
aS'https://www.thingiverse.com/thing:2479238'
p681
aS'https://www.thingiverse.com/thing:2500225'
p682
aS'https://www.thingiverse.com/thing:2230707'
p683
aS'https://www.thingiverse.com/thing:1203831'
p684
aS'https://www.thingiverse.com/thing:896832'
p685
aS'https://www.thingiverse.com/thing:1094858'
p686
aS'https://www.thingiverse.com/thing:2507257'
p687
aS'https://www.thingiverse.com/thing:2402102'
p688
aS'https://www.thingiverse.com/thing:2474442'
p689
aS'https://www.thingiverse.com/thing:1729443'
p690
aS'https://www.thingiverse.com/thing:1755471'
p691
aS'https://www.thingiverse.com/thing:1095104'
p692
aS'https://www.thingiverse.com/thing:2492051'
p693
aS'https://www.thingiverse.com/thing:2505671'
p694
aS'https://www.thingiverse.com/thing:2391071'
p695
aS'https://www.thingiverse.com/thing:2268994'
p696
aS'https://www.thingiverse.com/thing:1651315'
p697
aS'https://www.thingiverse.com/thing:1880138'
p698
aS'https://www.thingiverse.com/thing:2509228'
p699
aS'https://www.thingiverse.com/thing:1648888'
p700
aS'https://www.thingiverse.com/thing:2280081'
p701
aS'https://www.thingiverse.com/thing:2442185'
p702
aS'https://www.thingiverse.com/thing:2357576'
p703
aS'https://www.thingiverse.com/thing:2485151'
p704
aS'https://www.thingiverse.com/thing:2447958'
p705
aS'https://www.thingiverse.com/thing:2205631'
p706
aS'https://www.thingiverse.com/thing:1977355'
p707
aS'https://www.thingiverse.com/thing:2371418'
p708
aS'https://www.thingiverse.com/thing:1885007'
p709
aS'https://www.thingiverse.com/thing:2472593'
p710
aS'https://www.thingiverse.com/thing:1734347'
p711
aS'https://www.thingiverse.com/thing:2457757'
p712
aS'https://www.thingiverse.com/thing:2457756'
p713
aS'https://www.thingiverse.com/thing:1121001'
p714
aS'https://www.thingiverse.com/thing:2482299'
p715
aS'https://www.thingiverse.com/thing:1611996'
p716
aS'https://www.thingiverse.com/thing:2481258'
p717
aS'https://www.thingiverse.com/thing:1621650'
p718
aS'https://www.thingiverse.com/thing:2235910'
p719
aS'https://www.thingiverse.com/thing:1100601'
p720
aS'https://www.thingiverse.com/thing:2439194'
p721
aS'https://www.thingiverse.com/thing:2494293'
p722
aS'https://www.thingiverse.com/thing:1176646'
p723
aS'https://www.thingiverse.com/thing:2494297'
p724
aS'https://www.thingiverse.com/thing:1660459'
p725
aS'https://www.thingiverse.com/thing:2283772'
p726
aS'https://www.thingiverse.com/thing:2494461'
p727
aS'https://www.thingiverse.com/thing:2515597'
p728
aS'https://www.thingiverse.com/thing:2029528'
p729
aS'https://www.thingiverse.com/thing:1230562'
p730
aS'https://www.thingiverse.com/thing:1061769'
p731
aS'https://www.thingiverse.com/thing:1265766'
p732
aS'https://www.thingiverse.com/thing:1949256'
p733
aS'https://www.thingiverse.com/thing:2506681'
p734
aS'https://www.thingiverse.com/thing:1612401'
p735
aS'https://www.thingiverse.com/thing:1294085'
p736
aS'https://www.thingiverse.com/thing:2510521'
p737
aS'https://www.thingiverse.com/thing:1978236'
p738
aS'https://www.thingiverse.com/thing:2477160'
p739
aS'https://www.thingiverse.com/thing:2477162'
p740
aS'https://www.thingiverse.com/thing:2259607'
p741
aS'https://www.thingiverse.com/thing:2506208'
p742
aS'https://www.thingiverse.com/thing:1804801'
p743
aS'https://www.thingiverse.com/thing:2160636'
p744
aS'https://www.thingiverse.com/thing:1657541'
p745
aS'https://www.thingiverse.com/thing:473590'
p746
aS'https://www.thingiverse.com/thing:2161833'
p747
aS'https://www.thingiverse.com/thing:2045010'
p748
aS'https://www.thingiverse.com/thing:2477698'
p749
aS'https://www.thingiverse.com/thing:1911808'
p750
aS'https://www.thingiverse.com/thing:1834750'
p751
aS'https://www.thingiverse.com/thing:1692666'
p752
aS'https://www.thingiverse.com/thing:2512107'
p753
aS'https://www.thingiverse.com/thing:1889022'
p754
aS'https://www.thingiverse.com/thing:2344679'
p755
aS'https://www.thingiverse.com/thing:1322545'
p756
aS'https://www.thingiverse.com/thing:2268518'
p757
aS'https://www.thingiverse.com/thing:1752508'
p758
aS'https://www.thingiverse.com/thing:2261211'
p759
aS'https://www.thingiverse.com/thing:1446575'
p760
aS'https://www.thingiverse.com/thing:2488601'
p761
aS'https://www.thingiverse.com/thing:2101693'
p762
aS'https://www.thingiverse.com/thing:1505544'
p763
aS'https://www.thingiverse.com/thing:1056746'
p764
aS'https://www.thingiverse.com/thing:2451132'
p765
aS'https://www.thingiverse.com/thing:1696154'
p766
aS'https://www.thingiverse.com/thing:1816654'
p767
aS'https://www.thingiverse.com/thing:2038043'
p768
aS'https://www.thingiverse.com/thing:1293330'
p769
aS'https://www.thingiverse.com/thing:1239497'
p770
aS'https://www.thingiverse.com/thing:2119644'
p771
aS'https://www.thingiverse.com/thing:2311870'
p772
aS'https://www.thingiverse.com/thing:2495989'
p773
aS'https://www.thingiverse.com/thing:2495987'
p774
aS'https://www.thingiverse.com/thing:1025843'
p775
aS'https://www.thingiverse.com/thing:2491228'
p776
aS'https://www.thingiverse.com/thing:2105040'
p777
aS'https://www.thingiverse.com/thing:2490598'
p778
aS'https://www.thingiverse.com/thing:742476'
p779
aS'https://www.thingiverse.com/thing:1822981'
p780
aS'https://www.thingiverse.com/thing:2440968'
p781
aS'https://www.thingiverse.com/thing:1615753'
p782
aS'https://www.thingiverse.com/thing:1632847'
p783
aS'https://www.thingiverse.com/thing:2517867'
p784
aS'https://www.thingiverse.com/thing:2497215'
p785
aS'https://www.thingiverse.com/thing:2469137'
p786
aS'https://www.thingiverse.com/thing:2496613'
p787
aS'https://www.thingiverse.com/thing:1201115'
p788
aS'https://www.thingiverse.com/thing:2495521'
p789
aS'https://www.thingiverse.com/thing:2506164'
p790
aS'https://www.thingiverse.com/thing:1620630'
p791
aS'https://www.thingiverse.com/thing:2128014'
p792
aS'https://www.thingiverse.com/thing:2440814'
p793
aS'https://www.thingiverse.com/thing:2499257'
p794
aS'https://www.thingiverse.com/thing:2483246'
p795
aS'https://www.thingiverse.com/thing:1002024'
p796
aS'https://www.thingiverse.com/thing:2462254'
p797
aS'https://www.thingiverse.com/thing:600093'
p798
aS'https://www.thingiverse.com/thing:2492429'
p799
aS'https://www.thingiverse.com/thing:2492006'
p800
aS'https://www.thingiverse.com/thing:1877826'
p801
aS'https://www.thingiverse.com/thing:1678251'
p802
aS'https://www.thingiverse.com/thing:2078291'
p803
aS'https://www.thingiverse.com/thing:2504685'
p804
aS'https://www.thingiverse.com/thing:2122894'
p805
aS'https://www.thingiverse.com/thing:1754041'
p806
aS'https://www.thingiverse.com/thing:2055511'
p807
aS'https://www.thingiverse.com/thing:1334253'
p808
aS'https://www.thingiverse.com/thing:1677768'
p809
aS'https://www.thingiverse.com/thing:1999819'
p810
aS'https://www.thingiverse.com/thing:2402131'
p811
aS'https://www.thingiverse.com/thing:2448971'
p812
aS'https://www.thingiverse.com/thing:115150'
p813
aS'https://www.thingiverse.com/thing:745523'
p814
aS'https://www.thingiverse.com/thing:1750692'
p815
aS'https://www.thingiverse.com/thing:2479594'
p816
aS'https://www.thingiverse.com/thing:1875869'
p817
aS'https://www.thingiverse.com/thing:2469403'
p818
aS'https://www.thingiverse.com/thing:1976680'
p819
aS'https://www.thingiverse.com/thing:2302552'
p820
aS'https://www.thingiverse.com/thing:1977003'
p821
aS'https://www.thingiverse.com/thing:1643878'
p822
aS'https://www.thingiverse.com/thing:2322180'
p823
aS'https://www.thingiverse.com/thing:2508323'
p824
aS'https://www.thingiverse.com/thing:2508320'
p825
aS'https://www.thingiverse.com/thing:1881850'
p826
aS'https://www.thingiverse.com/thing:2494861'
p827
aS'https://www.thingiverse.com/thing:1798731'
p828
aS'https://www.thingiverse.com/thing:2047497'
p829
aS'https://www.thingiverse.com/thing:2475872'
p830
aS'https://www.thingiverse.com/thing:2489131'
p831
aS'https://www.thingiverse.com/thing:1112960'
p832
aS'https://www.thingiverse.com/thing:1853978'
p833
aS'https://www.thingiverse.com/thing:2478304'
p834
aS'https://www.thingiverse.com/thing:1568652'
p835
aS'https://www.thingiverse.com/thing:2052630'
p836
aS'https://www.thingiverse.com/thing:2479574'
p837
aS'https://www.thingiverse.com/thing:2187747'
p838
aS'https://www.thingiverse.com/thing:299766'
p839
aS'https://www.thingiverse.com/thing:1631236'
p840
aS'https://www.thingiverse.com/thing:2259838'
p841
aS'https://www.thingiverse.com/thing:1322805'
p842
aS'https://www.thingiverse.com/thing:891409'
p843
aS'https://www.thingiverse.com/thing:437576'
p844
aS'https://www.thingiverse.com/thing:1549403'
p845
aS'https://www.thingiverse.com/thing:2402310'
p846
aS'https://www.thingiverse.com/thing:2480992'
p847
aS'https://www.thingiverse.com/thing:2319404'
p848
aS'https://www.thingiverse.com/thing:2014187'
p849
aS'https://www.thingiverse.com/thing:2430252'
p850
aS'https://www.thingiverse.com/thing:2500788'
p851
aS'https://www.thingiverse.com/thing:2510083'
p852
aS'https://www.thingiverse.com/thing:1766868'
p853
aS'https://www.thingiverse.com/thing:2484504'
p854
aS'https://www.thingiverse.com/thing:2473239'
p855
aS'https://www.thingiverse.com/thing:2364425'
p856
aS'https://www.thingiverse.com/thing:2238530'
p857
aS'https://www.thingiverse.com/thing:2151104'
p858
aS'https://www.thingiverse.com/thing:2484293'
p859
aS'https://www.thingiverse.com/thing:1834292'
p860
aS'https://www.thingiverse.com/thing:2425783'
p861
aS'https://www.thingiverse.com/thing:1558212'
p862
aS'https://www.thingiverse.com/thing:1785261'
p863
aS'https://www.thingiverse.com/thing:1624412'
p864
aS'https://www.thingiverse.com/thing:2480978'
p865
aS'https://www.thingiverse.com/thing:2470962'
p866
aS'https://www.thingiverse.com/thing:2237509'
p867
aS'https://www.thingiverse.com/thing:2122339'
p868
aS'https://www.thingiverse.com/thing:2480199'
p869
aS'https://www.thingiverse.com/thing:2446989'
p870
aS'https://www.thingiverse.com/thing:2436413'
p871
aS'https://www.thingiverse.com/thing:2491505'
p872
aS'https://www.thingiverse.com/thing:1830185'
p873
aS'https://www.thingiverse.com/thing:1779274'
p874
aS'https://www.thingiverse.com/thing:2420462'
p875
aS'https://www.thingiverse.com/thing:1686322'
p876
aS'https://www.thingiverse.com/thing:492067'
p877
aS'https://www.thingiverse.com/thing:1685857'
p878
aS'https://www.thingiverse.com/thing:2036149'
p879
aS'https://www.thingiverse.com/thing:2286622'
p880
aS'https://www.thingiverse.com/thing:2500965'
p881
aS'https://www.thingiverse.com/thing:2500964'
p882
aS'https://www.thingiverse.com/thing:1103976'
p883
aS'https://www.thingiverse.com/thing:1159321'
p884
aS'https://www.thingiverse.com/thing:1665610'
p885
aS'https://www.thingiverse.com/thing:1664748'
p886
aS'https://www.thingiverse.com/thing:2499737'
p887
aS'https://www.thingiverse.com/thing:2397963'
p888
aS'https://www.thingiverse.com/thing:2144041'
p889
aS'https://www.thingiverse.com/thing:2040636'
p890
aS'https://www.thingiverse.com/thing:2512390'
p891
aS'https://www.thingiverse.com/thing:2491346'
p892
aS'https://www.thingiverse.com/thing:1082508'
p893
aS'https://www.thingiverse.com/thing:2300389'
p894
aS'https://www.thingiverse.com/thing:1872162'
p895
aS'https://www.thingiverse.com/thing:2485829'
p896
aS'https://www.thingiverse.com/thing:1526546'
p897
aS'https://www.thingiverse.com/thing:1662342'
p898
aS'https://www.thingiverse.com/thing:2423088'
p899
aS'https://www.thingiverse.com/thing:464195'
p900
aS'https://www.thingiverse.com/thing:2488988'
p901
aS'https://www.thingiverse.com/thing:1377544'
p902
aS'https://www.thingiverse.com/thing:2403050'
p903
aS'https://www.thingiverse.com/thing:2221310'
p904
aS'https://www.thingiverse.com/thing:1386866'
p905
aS'https://www.thingiverse.com/thing:2495885'
p906
aS'https://www.thingiverse.com/thing:2105275'
p907
aS'https://www.thingiverse.com/thing:2443581'
p908
aS'https://www.thingiverse.com/thing:2471701'
p909
aS'https://www.thingiverse.com/thing:2496281'
p910
aS'https://www.thingiverse.com/thing:2212749'
p911
aS'https://www.thingiverse.com/thing:2503310'
p912
aS'https://www.thingiverse.com/thing:2383299'
p913
aS'https://www.thingiverse.com/thing:2028501'
p914
aS'https://www.thingiverse.com/thing:2188995'
p915
aS'https://www.thingiverse.com/thing:1134586'
p916
aS'https://www.thingiverse.com/thing:2492456'
p917
aS'https://www.thingiverse.com/thing:2471634'
p918
aS'https://www.thingiverse.com/thing:1343844'
p919
aS'https://www.thingiverse.com/thing:2479213'
p920
aS'https://www.thingiverse.com/thing:2478345'
p921
aS'https://www.thingiverse.com/thing:1788944'
p922
aS'https://www.thingiverse.com/thing:1121142'
p923
aS'https://www.thingiverse.com/thing:2508558'
p924
aS'https://www.thingiverse.com/thing:1483266'
p925
aS'https://www.thingiverse.com/thing:2029321'
p926
aS'https://www.thingiverse.com/thing:2489038'
p927
aS'https://www.thingiverse.com/thing:1025471'
p928
aS'https://www.thingiverse.com/thing:1810943'
p929
aS'https://www.thingiverse.com/thing:2492078'
p930
aS'https://www.thingiverse.com/thing:2276997'
p931
aS'https://www.thingiverse.com/thing:2121279'
p932
aS'https://www.thingiverse.com/thing:547580'
p933
aS'https://www.thingiverse.com/thing:1419141'
p934
aS'https://www.thingiverse.com/thing:2505783'
p935
aS'https://www.thingiverse.com/thing:2021422'
p936
aS'https://www.thingiverse.com/thing:2482051'
p937
aS'https://www.thingiverse.com/thing:2482052'
p938
aS'https://www.thingiverse.com/thing:2482057'
p939
aS'https://www.thingiverse.com/thing:2509689'
p940
aS'https://www.thingiverse.com/thing:2468456'
p941
aS'https://www.thingiverse.com/thing:2468450'
p942
aS'https://www.thingiverse.com/thing:2486625'
p943
aS'https://www.thingiverse.com/thing:1850163'
p944
aS'https://www.thingiverse.com/thing:2284893'
p945
aS'https://www.thingiverse.com/thing:1912404'
p946
aS'https://www.thingiverse.com/thing:1568198'
p947
aS'https://www.thingiverse.com/thing:2353657'
p948
aS'https://www.thingiverse.com/thing:1464340'
p949
aS'https://www.thingiverse.com/thing:2479567'
p950
aS'https://www.thingiverse.com/thing:2456687'
p951
aS'https://www.thingiverse.com/thing:2468552'
p952
aS'https://www.thingiverse.com/thing:2379789'
p953
aS'https://www.thingiverse.com/thing:2504892'
p954
aS'https://www.thingiverse.com/thing:2008349'
p955
aS'https://www.thingiverse.com/thing:2144462'
p956
aS'https://www.thingiverse.com/thing:1190968'
p957
aS'https://www.thingiverse.com/thing:2506531'
p958
aS'https://www.thingiverse.com/thing:2476294'
p959
aS'https://www.thingiverse.com/thing:801279'
p960
aS'https://www.thingiverse.com/thing:1080782'
p961
aS'https://www.thingiverse.com/thing:1888486'
p962
aS'https://www.thingiverse.com/thing:1680965'
p963
aS'https://www.thingiverse.com/thing:1001437'
p964
aS'https://www.thingiverse.com/thing:1494559'
p965
aS'https://www.thingiverse.com/thing:2187088'
p966
aS'https://www.thingiverse.com/thing:2485882'
p967
aS'https://www.thingiverse.com/thing:2378326'
p968
aS'https://www.thingiverse.com/thing:2066228'
p969
aS'https://www.thingiverse.com/thing:2435618'
p970
aS'https://www.thingiverse.com/thing:2449174'
p971
aS'https://www.thingiverse.com/thing:1930621'
p972
aS'https://www.thingiverse.com/thing:1704879'
p973
aS'https://www.thingiverse.com/thing:1332650'
p974
aS'https://www.thingiverse.com/thing:2261050'
p975
aS'https://www.thingiverse.com/thing:1305368'
p976
aS'https://www.thingiverse.com/thing:1442707'
p977
aS'https://www.thingiverse.com/thing:2192303'
p978
aS'https://www.thingiverse.com/thing:1493275'
p979
aS'https://www.thingiverse.com/thing:26767'
p980
aS'https://www.thingiverse.com/thing:1828738'
p981
aS'https://www.thingiverse.com/thing:2495451'
p982
aS'https://www.thingiverse.com/thing:2170551'
p983
aS'https://www.thingiverse.com/thing:1126259'
p984
aS'https://www.thingiverse.com/thing:2497948'
p985
aS'https://www.thingiverse.com/thing:1329750'
p986
aS'https://www.thingiverse.com/thing:2088585'
p987
aS'https://www.thingiverse.com/thing:2505477'
p988
aS'https://www.thingiverse.com/thing:2490759'
p989
aS'https://www.thingiverse.com/thing:2506642'
p990
aS'https://www.thingiverse.com/thing:2105113'
p991
aS'https://www.thingiverse.com/thing:1872758'
p992
aS'https://www.thingiverse.com/thing:1681983'
p993
aS'https://www.thingiverse.com/thing:1194407'
p994
aS'https://www.thingiverse.com/thing:2303986'
p995
aS'https://www.thingiverse.com/thing:2484319'
p996
aS'https://www.thingiverse.com/thing:2232161'
p997
aS'https://www.thingiverse.com/thing:1585498'
p998
aS'https://www.thingiverse.com/thing:2480366'
p999
aS'https://www.thingiverse.com/thing:1669312'
p1000
aS'https://www.thingiverse.com/thing:2233183'
p1001
aS'https://www.thingiverse.com/thing:2013479'
p1002
aS'https://www.thingiverse.com/thing:2285383'
p1003
aS'https://www.thingiverse.com/thing:2473019'
p1004
aS'https://www.thingiverse.com/thing:2471958'
p1005
aS'https://www.thingiverse.com/thing:1995149'
p1006
aS'https://www.thingiverse.com/thing:1155687'
p1007
aS'https://www.thingiverse.com/thing:1224565'
p1008
aS'https://www.thingiverse.com/thing:1069256'
p1009
aS'https://www.thingiverse.com/thing:2368805'
p1010
aS'https://www.thingiverse.com/thing:2047554'
p1011
aS'https://www.thingiverse.com/thing:1646220'
p1012
aS'https://www.thingiverse.com/thing:1815784'
p1013
aS'https://www.thingiverse.com/thing:2020468'
p1014
aS'https://www.thingiverse.com/thing:2203039'
p1015
aS'https://www.thingiverse.com/thing:1977933'
p1016
aS'https://www.thingiverse.com/thing:2491249'
p1017
aS'https://www.thingiverse.com/thing:2498416'
p1018
aS'https://www.thingiverse.com/thing:1261806'
p1019
aS'https://www.thingiverse.com/thing:2466042'
p1020
aS'https://www.thingiverse.com/thing:1814815'
p1021
aS'https://www.thingiverse.com/thing:1839821'
p1022
aS'https://www.thingiverse.com/thing:1370792'
p1023
aS'https://www.thingiverse.com/thing:2507060'
p1024
aS'https://www.thingiverse.com/thing:1615555'
p1025
aS'https://www.thingiverse.com/thing:2487037'
p1026
aS'https://www.thingiverse.com/thing:1684471'
p1027
aS'https://www.thingiverse.com/thing:2409785'
p1028
aS'https://www.thingiverse.com/thing:2497763'
p1029
aS'https://www.thingiverse.com/thing:1238980'
p1030
aS'https://www.thingiverse.com/thing:2516537'
p1031
aS'https://www.thingiverse.com/thing:2496707'
p1032
aS'https://www.thingiverse.com/thing:2496706'
p1033
aS'https://www.thingiverse.com/thing:2462639'
p1034
aS'https://www.thingiverse.com/thing:2349745'
p1035
aS'https://www.thingiverse.com/thing:1587568'
p1036
aS'https://www.thingiverse.com/thing:2433137'
p1037
aS'https://www.thingiverse.com/thing:1971969'
p1038
aS'https://www.thingiverse.com/thing:2509328'
p1039
aS'https://www.thingiverse.com/thing:1766512'
p1040
aS'https://www.thingiverse.com/thing:1868193'
p1041
aS'https://www.thingiverse.com/thing:2465385'
p1042
aS'https://www.thingiverse.com/thing:1284700'
p1043
aS'https://www.thingiverse.com/thing:2333503'
p1044
aS'https://www.thingiverse.com/thing:2489028'
p1045
aS'https://www.thingiverse.com/thing:1519257'
p1046
aS'https://www.thingiverse.com/thing:1904654'
p1047
aS'https://www.thingiverse.com/thing:2005457'
p1048
aS'https://www.thingiverse.com/thing:2492662'
p1049
aS'https://www.thingiverse.com/thing:1209775'
p1050
aS'https://www.thingiverse.com/thing:2168244'
p1051
aS'https://www.thingiverse.com/thing:1532944'
p1052
aS'https://www.thingiverse.com/thing:1320948'
p1053
aS'https://www.thingiverse.com/thing:2412647'
p1054
aS'https://www.thingiverse.com/thing:2474497'
p1055
aS'https://www.thingiverse.com/thing:2474496'
p1056
aS'https://www.thingiverse.com/thing:478422'
p1057
aS'https://www.thingiverse.com/thing:2482332'
p1058
aS'https://www.thingiverse.com/thing:1668456'
p1059
aS'https://www.thingiverse.com/thing:2078121'
p1060
aS'https://www.thingiverse.com/thing:1595429'
p1061
aS'https://www.thingiverse.com/thing:1684121'
p1062
aS'https://www.thingiverse.com/thing:1091637'
p1063
aS'https://www.thingiverse.com/thing:2424576'
p1064
aS'https://www.thingiverse.com/thing:1654095'
p1065
aS'https://www.thingiverse.com/thing:1168292'
p1066
aS'https://www.thingiverse.com/thing:2515728'
p1067
aS'https://www.thingiverse.com/thing:2381829'
p1068
aS'https://www.thingiverse.com/thing:1811143'
p1069
aS'https://www.thingiverse.com/thing:1844744'
p1070
aS'https://www.thingiverse.com/thing:2447120'
p1071
aS'https://www.thingiverse.com/thing:2493628'
p1072
aS'https://www.thingiverse.com/thing:2086578'
p1073
aS'https://www.thingiverse.com/thing:2505147'
p1074
aS'https://www.thingiverse.com/thing:2479559'
p1075
aS'https://www.thingiverse.com/thing:2426460'
p1076
aS'https://www.thingiverse.com/thing:2357524'
p1077
aS'https://www.thingiverse.com/thing:2186253'
p1078
aS'https://www.thingiverse.com/thing:2328058'
p1079
aS'https://www.thingiverse.com/thing:2313000'
p1080
aS'https://www.thingiverse.com/thing:2478978'
p1081
aS'https://www.thingiverse.com/thing:2510395'
p1082
aS'https://www.thingiverse.com/thing:1228521'
p1083
aS'https://www.thingiverse.com/thing:2474925'
p1084
aS'https://www.thingiverse.com/thing:1760063'
p1085
aS'https://www.thingiverse.com/thing:2438763'
p1086
aS'https://www.thingiverse.com/thing:2421240'
p1087
aS'https://www.thingiverse.com/thing:1778271'
p1088
aS'https://www.thingiverse.com/thing:2377774'
p1089
aS'https://www.thingiverse.com/thing:2204596'
p1090
aS'https://www.thingiverse.com/thing:2520236'
p1091
aS'https://www.thingiverse.com/thing:2373770'
p1092
aS'https://www.thingiverse.com/thing:1071966'
p1093
aS'https://www.thingiverse.com/thing:1524186'
p1094
aS'https://www.thingiverse.com/thing:1064944'
p1095
aS'https://www.thingiverse.com/thing:2513574'
p1096
aS'https://www.thingiverse.com/thing:2353468'
p1097
aS'https://www.thingiverse.com/thing:1473909'
p1098
aS'https://www.thingiverse.com/thing:2494154'
p1099
aS'https://www.thingiverse.com/thing:2504314'
p1100
aS'https://www.thingiverse.com/thing:1811769'
p1101
aS'https://www.thingiverse.com/thing:1684720'
p1102
aS'https://www.thingiverse.com/thing:2287009'
p1103
aS'https://www.thingiverse.com/thing:2503784'
p1104
aS'https://www.thingiverse.com/thing:2202854'
p1105
aS'https://www.thingiverse.com/thing:1081682'
p1106
aS'https://www.thingiverse.com/thing:2044042'
p1107
aS'https://www.thingiverse.com/thing:1489606'
p1108
aS'https://www.thingiverse.com/thing:2505917'
p1109
aS'https://www.thingiverse.com/thing:2187071'
p1110
aS'https://www.thingiverse.com/thing:2254103'
p1111
aS'https://www.thingiverse.com/thing:2480081'
p1112
aS'https://www.thingiverse.com/thing:2480083'
p1113
aS'https://www.thingiverse.com/thing:1388237'
p1114
aS'https://www.thingiverse.com/thing:1073669'
p1115
aS'https://www.thingiverse.com/thing:1798315'
p1116
aS'https://www.thingiverse.com/thing:2286737'
p1117
aS'https://www.thingiverse.com/thing:2252158'
p1118
aS'https://www.thingiverse.com/thing:2431184'
p1119
aS'https://www.thingiverse.com/thing:1874802'
p1120
aS'https://www.thingiverse.com/thing:1236962'
p1121
aS'https://www.thingiverse.com/thing:2420448'
p1122
aS'https://www.thingiverse.com/thing:2506075'
p1123
aS'https://www.thingiverse.com/thing:1606346'
p1124
aS'https://www.thingiverse.com/thing:461235'
p1125
aS'https://www.thingiverse.com/thing:2144277'
p1126
aS'https://www.thingiverse.com/thing:1273682'
p1127
aS'https://www.thingiverse.com/thing:2074855'
p1128
aS'https://www.thingiverse.com/thing:1594269'
p1129
aS'https://www.thingiverse.com/thing:2479925'
p1130
aS'https://www.thingiverse.com/thing:2459052'
p1131
aS'https://www.thingiverse.com/thing:2480796'
p1132
aS'https://www.thingiverse.com/thing:2512531'
p1133
aS'https://www.thingiverse.com/thing:1434689'
p1134
aS'https://www.thingiverse.com/thing:1737163'
p1135
aS'https://www.thingiverse.com/thing:2425586'
p1136
aS'https://www.thingiverse.com/thing:1915994'
p1137
aS'https://www.thingiverse.com/thing:1387260'
p1138
aS'https://www.thingiverse.com/thing:2498824'
p1139
aS'https://www.thingiverse.com/thing:2162266'
p1140
aS'https://www.thingiverse.com/thing:2045424'
p1141
aS'https://www.thingiverse.com/thing:2394452'
p1142
aS'https://www.thingiverse.com/thing:2479488'
p1143
aS'https://www.thingiverse.com/thing:1760679'
p1144
aS'https://www.thingiverse.com/thing:2161841'
p1145
aS'https://www.thingiverse.com/thing:1015706'
p1146
aS'https://www.thingiverse.com/thing:1682040'
p1147
aS'https://www.thingiverse.com/thing:1617965'
p1148
aS'https://www.thingiverse.com/thing:1375781'
p1149
aS'https://www.thingiverse.com/thing:1403225'
p1150
aS'https://www.thingiverse.com/thing:2349511'
p1151
aS'https://www.thingiverse.com/thing:2051738'
p1152
aS'https://www.thingiverse.com/thing:1978765'
p1153
aS'https://www.thingiverse.com/thing:2491385'
p1154
aS'https://www.thingiverse.com/thing:188275'
p1155
aS'https://www.thingiverse.com/thing:2389245'
p1156
aS'https://www.thingiverse.com/thing:2322856'
p1157
aS'https://www.thingiverse.com/thing:1174508'
p1158
aS'https://www.thingiverse.com/thing:2373442'
p1159
aS'https://www.thingiverse.com/thing:2256087'
p1160
aS'https://www.thingiverse.com/thing:1347129'
p1161
aS'https://www.thingiverse.com/thing:2495976'
p1162
aS'https://www.thingiverse.com/thing:1683240'
p1163
aS'https://www.thingiverse.com/thing:2469518'
p1164
aS'https://www.thingiverse.com/thing:2409790'
p1165
aS'https://www.thingiverse.com/thing:1440174'
p1166
aS'https://www.thingiverse.com/thing:1184315'
p1167
aS'https://www.thingiverse.com/thing:2465552'
p1168
aS'https://www.thingiverse.com/thing:911891'
p1169
aS'https://www.thingiverse.com/thing:2293988'
p1170
aS'https://www.thingiverse.com/thing:1454048'
p1171
aS'https://www.thingiverse.com/thing:1395937'
p1172
aS'https://www.thingiverse.com/thing:2146021'
p1173
aS'https://www.thingiverse.com/thing:1843400'
p1174
aS'https://www.thingiverse.com/thing:2471057'
p1175
aS'https://www.thingiverse.com/thing:2492382'
p1176
aS'https://www.thingiverse.com/thing:2020668'
p1177
aS'https://www.thingiverse.com/thing:1188258'
p1178
aS'https://www.thingiverse.com/thing:1330212'
p1179
aS'https://www.thingiverse.com/thing:1767851'
p1180
aS'https://www.thingiverse.com/thing:1699752'
p1181
aS'https://www.thingiverse.com/thing:2043719'
p1182
aS'https://www.thingiverse.com/thing:2002157'
p1183
aS'https://www.thingiverse.com/thing:2508531'
p1184
aS'https://www.thingiverse.com/thing:2483037'
p1185
aS'https://www.thingiverse.com/thing:2474716'
p1186
aS'https://www.thingiverse.com/thing:2507692'
p1187
aS'https://www.thingiverse.com/thing:1907394'
p1188
aS'https://www.thingiverse.com/thing:1772848'
p1189
aS'https://www.thingiverse.com/thing:1783619'
p1190
aS'https://www.thingiverse.com/thing:1845762'
p1191
aS'https://www.thingiverse.com/thing:2034631'
p1192
aS'https://www.thingiverse.com/thing:2500311'
p1193
aS'https://www.thingiverse.com/thing:1278865'
p1194
aS'https://www.thingiverse.com/thing:2482038'
p1195
aS'https://www.thingiverse.com/thing:2290050'
p1196
aS'https://www.thingiverse.com/thing:2484934'
p1197
aS'https://www.thingiverse.com/thing:2482030'
p1198
aS'https://www.thingiverse.com/thing:2475821'
p1199
aS'https://www.thingiverse.com/thing:1268879'
p1200
aS'https://www.thingiverse.com/thing:1672381'
p1201
aS'https://www.thingiverse.com/thing:2474803'
p1202
aS'https://www.thingiverse.com/thing:2496296'
p1203
aS'https://www.thingiverse.com/thing:2492121'
p1204
aS'https://www.thingiverse.com/thing:1276095'
p1205
aS'https://www.thingiverse.com/thing:1727833'
p1206
aS'https://www.thingiverse.com/thing:930236'
p1207
aS'https://www.thingiverse.com/thing:2492723'
p1208
aS'https://www.thingiverse.com/thing:2493639'
p1209
aS'https://www.thingiverse.com/thing:2087761'
p1210
aS'https://www.thingiverse.com/thing:2096581'
p1211
aS'https://www.thingiverse.com/thing:919475'
p1212
aS'https://www.thingiverse.com/thing:2479548'
p1213
aS'https://www.thingiverse.com/thing:2231030'
p1214
aS'https://www.thingiverse.com/thing:2456797'
p1215
aS'https://www.thingiverse.com/thing:2482920'
p1216
aS'https://www.thingiverse.com/thing:2502662'
p1217
aS'https://www.thingiverse.com/thing:2472799'
p1218
aS'https://www.thingiverse.com/thing:1071695'
p1219
aS'https://www.thingiverse.com/thing:1541238'
p1220
aS'https://www.thingiverse.com/thing:1095980'
p1221
aS'https://www.thingiverse.com/thing:2390346'
p1222
aS'https://www.thingiverse.com/thing:2510701'
p1223
aS'https://www.thingiverse.com/thing:2498246'
p1224
aS'https://www.thingiverse.com/thing:654751'
p1225
aS'https://www.thingiverse.com/thing:2396243'
p1226
aS'https://www.thingiverse.com/thing:1177951'
p1227
aS'https://www.thingiverse.com/thing:1667379'
p1228
aS'https://www.thingiverse.com/thing:1937236'
p1229
aS'https://www.thingiverse.com/thing:2194253'
p1230
aS'https://www.thingiverse.com/thing:2485063'
p1231
aS'https://www.thingiverse.com/thing:2494096'
p1232
aS'https://www.thingiverse.com/thing:2481362'
p1233
aS'https://www.thingiverse.com/thing:2484792'
p1234
aS'https://www.thingiverse.com/thing:2472088'
p1235
aS'https://www.thingiverse.com/thing:2509483'
p1236
aS'https://www.thingiverse.com/thing:1249221'
p1237
aS'https://www.thingiverse.com/thing:1654077'
p1238
aS'https://www.thingiverse.com/thing:2200007'
p1239
aS'https://www.thingiverse.com/thing:2427985'
p1240
aS'https://www.thingiverse.com/thing:2476381'
p1241
aS'https://www.thingiverse.com/thing:1326207'
p1242
aS'https://www.thingiverse.com/thing:2392856'
p1243
aS'https://www.thingiverse.com/thing:2477654'
p1244
aS'https://www.thingiverse.com/thing:1785541'
p1245
aS'https://www.thingiverse.com/thing:2169915'
p1246
aS'https://www.thingiverse.com/thing:2473579'
p1247
aS'https://www.thingiverse.com/thing:2459191'
p1248
aS'https://www.thingiverse.com/thing:2180588'
p1249
aS'https://www.thingiverse.com/thing:1725308'
p1250
aS'https://www.thingiverse.com/thing:2473376'
p1251
aS'https://www.thingiverse.com/thing:2137647'
p1252
aS'https://www.thingiverse.com/thing:2517464'
p1253
aS'https://www.thingiverse.com/thing:2170442'
p1254
aS'https://www.thingiverse.com/thing:2502178'
p1255
aS'https://www.thingiverse.com/thing:1719594'
p1256
aS'https://www.thingiverse.com/thing:1931480'
p1257
aS'https://www.thingiverse.com/thing:2492341'
p1258
aS'https://www.thingiverse.com/thing:2487520'
p1259
aS'https://www.thingiverse.com/thing:2487524'
p1260
aS'https://www.thingiverse.com/thing:1736928'
p1261
aS'https://www.thingiverse.com/thing:2490429'
p1262
aS'https://www.thingiverse.com/thing:1718731'
p1263
aS'https://www.thingiverse.com/thing:1909494'
p1264
aS'https://www.thingiverse.com/thing:2489778'
p1265
aS'https://www.thingiverse.com/thing:1682347'
p1266
aS'https://www.thingiverse.com/thing:1340624'
p1267
aS'https://www.thingiverse.com/thing:2022821'
p1268
aS'https://www.thingiverse.com/thing:2500882'
p1269
aS'https://www.thingiverse.com/thing:2473590'
p1270
aS'https://www.thingiverse.com/thing:2368738'
p1271
aS'https://www.thingiverse.com/thing:2243600'
p1272
aS'https://www.thingiverse.com/thing:1568293'
p1273
aS'https://www.thingiverse.com/thing:2282869'
p1274
aS'https://www.thingiverse.com/thing:2212112'
p1275
aS'https://www.thingiverse.com/thing:2513927'
p1276
aS'https://www.thingiverse.com/thing:1678678'
p1277
aS'https://www.thingiverse.com/thing:2516286'
p1278
aS'https://www.thingiverse.com/thing:1642871'
p1279
aS'https://www.thingiverse.com/thing:2502817'
p1280
aS'https://www.thingiverse.com/thing:1887826'
p1281
aS'https://www.thingiverse.com/thing:1821540'
p1282
aS'https://www.thingiverse.com/thing:2188146'
p1283
aS'https://www.thingiverse.com/thing:2498478'
p1284
aS'https://www.thingiverse.com/thing:2105393'
p1285
aS'https://www.thingiverse.com/thing:2219472'
p1286
aS'https://www.thingiverse.com/thing:1169741'
p1287
aS'https://www.thingiverse.com/thing:2507892'
p1288
aS'https://www.thingiverse.com/thing:1709106'
p1289
aS'https://www.thingiverse.com/thing:2485899'
p1290
aS'https://www.thingiverse.com/thing:1264391'
p1291
aS'https://www.thingiverse.com/thing:2330654'
p1292
aS'https://www.thingiverse.com/thing:1777225'
p1293
aS'https://www.thingiverse.com/thing:1579363'
p1294
aS'https://www.thingiverse.com/thing:2031690'
p1295
aS'https://www.thingiverse.com/thing:2264558'
p1296
aS'https://www.thingiverse.com/thing:2016779'
p1297
aS'https://www.thingiverse.com/thing:2503964'
p1298
aS'https://www.thingiverse.com/thing:2491840'
p1299
aS'https://www.thingiverse.com/thing:2002148'
p1300
aS'https://www.thingiverse.com/thing:2481453'
p1301
aS'https://www.thingiverse.com/thing:2145107'
p1302
aS'https://www.thingiverse.com/thing:2236891'
p1303
aS'https://www.thingiverse.com/thing:1023303'
p1304
aS'https://www.thingiverse.com/thing:2407000'
p1305
aS'https://www.thingiverse.com/thing:1624641'
p1306
aS'https://www.thingiverse.com/thing:1116392'
p1307
aS'https://www.thingiverse.com/thing:1894851'
p1308
aS'https://www.thingiverse.com/thing:1115840'
p1309
aS'https://www.thingiverse.com/thing:1089917'
p1310
aS'https://www.thingiverse.com/thing:2497525'
p1311
aS'https://www.thingiverse.com/thing:2365853'
p1312
aS'https://www.thingiverse.com/thing:1919441'
p1313
aS'https://www.thingiverse.com/thing:2471063'
p1314
aS'https://www.thingiverse.com/thing:2153014'
p1315
aS'https://www.thingiverse.com/thing:2078038'
p1316
aS'https://www.thingiverse.com/thing:2519590'
p1317
aS'https://www.thingiverse.com/thing:2484927'
p1318
aS'https://www.thingiverse.com/thing:1668472'
p1319
aS'https://www.thingiverse.com/thing:1641044'
p1320
aS'https://www.thingiverse.com/thing:2448843'
p1321
aS'https://www.thingiverse.com/thing:1175393'
p1322
aS'https://www.thingiverse.com/thing:2515708'
p1323
aS'https://www.thingiverse.com/thing:2492135'
p1324
aS'https://www.thingiverse.com/thing:2486762'
p1325
aS'https://www.thingiverse.com/thing:2376150'
p1326
aS'https://www.thingiverse.com/thing:2324616'
p1327
aS'https://www.thingiverse.com/thing:2520142'
p1328
aS'https://www.thingiverse.com/thing:2103156'
p1329
aS'https://www.thingiverse.com/thing:1980281'
p1330
aS'https://www.thingiverse.com/thing:2488316'
p1331
aS'https://www.thingiverse.com/thing:2481209'
p1332
aS'https://www.thingiverse.com/thing:2182199'
p1333
aS'https://www.thingiverse.com/thing:1798669'
p1334
aS'https://www.thingiverse.com/thing:1703104'
p1335
aS'https://www.thingiverse.com/thing:2122752'
p1336
aS'https://www.thingiverse.com/thing:1984701'
p1337
aS'https://www.thingiverse.com/thing:2170852'
p1338
aS'https://www.thingiverse.com/thing:1071010'
p1339
aS'https://www.thingiverse.com/thing:2076234'
p1340
aS'https://www.thingiverse.com/thing:2485652'
p1341
aS'https://www.thingiverse.com/thing:2476398'
p1342
aS'https://www.thingiverse.com/thing:1643787'
p1343
aS'https://www.thingiverse.com/thing:2506907'
p1344
aS'https://www.thingiverse.com/thing:1872509'
p1345
aS'https://www.thingiverse.com/thing:1120219'
p1346
aS'https://www.thingiverse.com/thing:1743397'
p1347
aS'https://www.thingiverse.com/thing:275091'
p1348
aS'https://www.thingiverse.com/thing:1575068'
p1349
aS'https://www.thingiverse.com/thing:2407066'
p1350
aS'https://www.thingiverse.com/thing:1581003'
p1351
aS'https://www.thingiverse.com/thing:1069671'
p1352
aS'https://www.thingiverse.com/thing:559858'
p1353
aS'https://www.thingiverse.com/thing:1767285'
p1354
aS'https://www.thingiverse.com/thing:2499454'
p1355
aS'https://www.thingiverse.com/thing:2410987'
p1356
aS'https://www.thingiverse.com/thing:1947646'
p1357
aS'https://www.thingiverse.com/thing:1503525'
p1358
aS'https://www.thingiverse.com/thing:1234760'
p1359
aS'https://www.thingiverse.com/thing:1747492'
p1360
aS'https://www.thingiverse.com/thing:473639'
p1361
aS'https://www.thingiverse.com/thing:2497998'
p1362
aS'https://www.thingiverse.com/thing:2193695'
p1363
aS'https://www.thingiverse.com/thing:2480845'
p1364
aS'https://www.thingiverse.com/thing:2480844'
p1365
aS'https://www.thingiverse.com/thing:2120591'
p1366
aS'https://www.thingiverse.com/thing:2410181'
p1367
aS'https://www.thingiverse.com/thing:2481795'
p1368
aS'https://www.thingiverse.com/thing:2016317'
p1369
aS'https://www.thingiverse.com/thing:2369347'
p1370
aS'https://www.thingiverse.com/thing:2444703'
p1371
aS'https://www.thingiverse.com/thing:2222088'
p1372
aS'https://www.thingiverse.com/thing:2364807'
p1373
aS'https://www.thingiverse.com/thing:2470853'
p1374
aS'https://www.thingiverse.com/thing:2415489'
p1375
aS'https://www.thingiverse.com/thing:2490072'
p1376
aS'https://www.thingiverse.com/thing:2478754'
p1377
aS'https://www.thingiverse.com/thing:2499602'
p1378
aS'https://www.thingiverse.com/thing:2492813'
p1379
aS'https://www.thingiverse.com/thing:1856183'
p1380
aS'https://www.thingiverse.com/thing:2471857'
p1381
aS'https://www.thingiverse.com/thing:1949142'
p1382
aS'https://www.thingiverse.com/thing:1682665'
p1383
aS'https://www.thingiverse.com/thing:2105705'
p1384
aS'https://www.thingiverse.com/thing:2496488'
p1385
aS'https://www.thingiverse.com/thing:1600919'
p1386
aS'https://www.thingiverse.com/thing:2486290'
p1387
aS'https://www.thingiverse.com/thing:1805457'
p1388
aS'https://www.thingiverse.com/thing:1471789'
p1389
aS'https://www.thingiverse.com/thing:1792078'
p1390
aS'https://www.thingiverse.com/thing:1998669'
p1391
aS'https://www.thingiverse.com/thing:1753199'
p1392
aS'https://www.thingiverse.com/thing:1072576'
p1393
aS'https://www.thingiverse.com/thing:2423999'
p1394
aS'https://www.thingiverse.com/thing:2051881'
p1395
aS'https://www.thingiverse.com/thing:1358552'
p1396
aS'https://www.thingiverse.com/thing:1997048'
p1397
aS'https://www.thingiverse.com/thing:2436306'
p1398
aS'https://www.thingiverse.com/thing:2504430'
p1399
aS'https://www.thingiverse.com/thing:1482869'
p1400
aS'https://www.thingiverse.com/thing:1908461'
p1401
aS'https://www.thingiverse.com/thing:1496674'
p1402
aS'https://www.thingiverse.com/thing:2508515'
p1403
aS'https://www.thingiverse.com/thing:2474131'
p1404
aS'https://www.thingiverse.com/thing:2422558'
p1405
aS'https://www.thingiverse.com/thing:2314699'
p1406
aS'https://www.thingiverse.com/thing:1213127'
p1407
aS'https://www.thingiverse.com/thing:2427677'
p1408
aS'https://www.thingiverse.com/thing:2024293'
p1409
aS'https://www.thingiverse.com/thing:1959595'
p1410
aS'https://www.thingiverse.com/thing:1611752'
p1411
aS'https://www.thingiverse.com/thing:2002778'
p1412
aS'https://www.thingiverse.com/thing:1241566'
p1413
aS'https://www.thingiverse.com/thing:1491610'
p1414
aS'https://www.thingiverse.com/thing:38224'
p1415
aS'https://www.thingiverse.com/thing:2482788'
p1416
aS'https://www.thingiverse.com/thing:2172190'
p1417
aS'https://www.thingiverse.com/thing:2511185'
p1418
aS'https://www.thingiverse.com/thing:2116304'
p1419
aS'https://www.thingiverse.com/thing:2313909'
p1420
aS'https://www.thingiverse.com/thing:1936727'
p1421
aS'https://www.thingiverse.com/thing:2465751'
p1422
aS'https://www.thingiverse.com/thing:1032959'
p1423
aS'https://www.thingiverse.com/thing:2478810'
p1424
aS'https://www.thingiverse.com/thing:2465191'
p1425
aS'https://www.thingiverse.com/thing:2489146'
p1426
aS'https://www.thingiverse.com/thing:2504299'
p1427
aS'https://www.thingiverse.com/thing:2448851'
p1428
aS'https://www.thingiverse.com/thing:1191393'
p1429
aS'https://www.thingiverse.com/thing:2157245'
p1430
aS'https://www.thingiverse.com/thing:2384821'
p1431
aS'https://www.thingiverse.com/thing:2498868'
p1432
aS'https://www.thingiverse.com/thing:2294973'
p1433
aS'https://www.thingiverse.com/thing:1673030'
p1434
aS'https://www.thingiverse.com/thing:2497461'
p1435
aS'https://www.thingiverse.com/thing:2469541'
p1436
aS'https://www.thingiverse.com/thing:2492743'
p1437
aS'https://www.thingiverse.com/thing:2352833'
p1438
aS'https://www.thingiverse.com/thing:2347849'
p1439
aS'https://www.thingiverse.com/thing:2493295'
p1440
aS'https://www.thingiverse.com/thing:2475178'
p1441
aS'https://www.thingiverse.com/thing:2503358'
p1442
aS'https://www.thingiverse.com/thing:2399608'
p1443
aS'https://www.thingiverse.com/thing:2509805'
p1444
aS'https://www.thingiverse.com/thing:2488300'
p1445
aS'https://www.thingiverse.com/thing:1743145'
p1446
aS'https://www.thingiverse.com/thing:1074129'
p1447
aS'https://www.thingiverse.com/thing:2494560'
p1448
aS'https://www.thingiverse.com/thing:2475990'
p1449
aS'https://www.thingiverse.com/thing:1291987'
p1450
aS'https://www.thingiverse.com/thing:2387420'
p1451
aS'https://www.thingiverse.com/thing:1345517'
p1452
aS'https://www.thingiverse.com/thing:2461473'
p1453
aS'https://www.thingiverse.com/thing:2460287'
p1454
aS'https://www.thingiverse.com/thing:1913577'
p1455
aS'https://www.thingiverse.com/thing:2501060'
p1456
aS'https://www.thingiverse.com/thing:2479453'
p1457
aS'https://www.thingiverse.com/thing:2457860'
p1458
aS'https://www.thingiverse.com/thing:2204941'
p1459
aS'https://www.thingiverse.com/thing:2502377'
p1460
aS'https://www.thingiverse.com/thing:2025760'
p1461
aS'https://www.thingiverse.com/thing:2489329'
p1462
aS'https://www.thingiverse.com/thing:2241109'
p1463
aS'https://www.thingiverse.com/thing:2096502'
p1464
aS'https://www.thingiverse.com/thing:2489322'
p1465
aS'https://www.thingiverse.com/thing:2494983'
p1466
aS'https://www.thingiverse.com/thing:2123962'
p1467
aS'https://www.thingiverse.com/thing:1101793'
p1468
aS'https://www.thingiverse.com/thing:2496909'
p1469
aS'https://www.thingiverse.com/thing:1639224'
p1470
aS'https://www.thingiverse.com/thing:2501242'
p1471
aS'https://www.thingiverse.com/thing:2388015'
p1472
aS'https://www.thingiverse.com/thing:2496905'
p1473
aS'https://www.thingiverse.com/thing:1758859'
p1474
aS'https://www.thingiverse.com/thing:1983420'
p1475
aS'https://www.thingiverse.com/thing:2510907'
p1476
aS'https://www.thingiverse.com/thing:2478496'
p1477
aS'https://www.thingiverse.com/thing:1797006'
p1478
aS'https://www.thingiverse.com/thing:1284432'
p1479
aS'https://www.thingiverse.com/thing:1817180'
p1480
aS'https://www.thingiverse.com/thing:2467681'
p1481
aS'https://www.thingiverse.com/thing:2490088'
p1482
aS'https://www.thingiverse.com/thing:2110570'
p1483
aS'https://www.thingiverse.com/thing:2219103'
p1484
aS'https://www.thingiverse.com/thing:1436529'
p1485
aS'https://www.thingiverse.com/thing:2513837'
p1486
aS'https://www.thingiverse.com/thing:2460903'
p1487
aS'https://www.thingiverse.com/thing:2349879'
p1488
aS'https://www.thingiverse.com/thing:1918916'
p1489
aS'https://www.thingiverse.com/thing:1752816'
p1490
aS'https://www.thingiverse.com/thing:1935014'
p1491
aS'https://www.thingiverse.com/thing:2480854'
p1492
aS'https://www.thingiverse.com/thing:1969140'
p1493
aS'https://www.thingiverse.com/thing:2472994'
p1494
aS'https://www.thingiverse.com/thing:1652158'
p1495
aS'https://www.thingiverse.com/thing:2484359'
p1496
aS'https://www.thingiverse.com/thing:2489557'
p1497
aS'https://www.thingiverse.com/thing:2144749'
p1498
aS'https://www.thingiverse.com/thing:2497876'
p1499
aS'https://www.thingiverse.com/thing:1257186'
p1500
aS'https://www.thingiverse.com/thing:1156995'
p1501
aS'https://www.thingiverse.com/thing:2477901'
p1502
aS'https://www.thingiverse.com/thing:2490404'
p1503
aS'https://www.thingiverse.com/thing:2518129'
p1504
aS'https://www.thingiverse.com/thing:2086413'
p1505
aS'https://www.thingiverse.com/thing:2487257'
p1506
aS'https://www.thingiverse.com/thing:1746358'
p1507
aS'https://www.thingiverse.com/thing:1545913'
p1508
aS'https://www.thingiverse.com/thing:2003149'
p1509
aS'https://www.thingiverse.com/thing:2475495'
p1510
aS'https://www.thingiverse.com/thing:1604440'
p1511
aS'https://www.thingiverse.com/thing:2473647'
p1512
aS'https://www.thingiverse.com/thing:2175956'
p1513
aS'https://www.thingiverse.com/thing:2518934'
p1514
aS'https://www.thingiverse.com/thing:2500998'
p1515
aS'https://www.thingiverse.com/thing:2310766'
p1516
aS'https://www.thingiverse.com/thing:1972010'
p1517
aS'https://www.thingiverse.com/thing:1829779'
p1518
aS'https://www.thingiverse.com/thing:1325370'
p1519
aS'https://www.thingiverse.com/thing:1780265'
p1520
aS'https://www.thingiverse.com/thing:2511974'
p1521
aS'https://www.thingiverse.com/thing:2434771'
p1522
aS'https://www.thingiverse.com/thing:1458545'
p1523
aS'https://www.thingiverse.com/thing:1055201'
p1524
aS'https://www.thingiverse.com/thing:1358526'
p1525
aS'https://www.thingiverse.com/thing:1997900'
p1526
aS'https://www.thingiverse.com/thing:1993482'
p1527
aS'https://www.thingiverse.com/thing:1673809'
p1528
aS'https://www.thingiverse.com/thing:2492939'
p1529
aS'https://www.thingiverse.com/thing:1073567'
p1530
aS'https://www.thingiverse.com/thing:2314063'
p1531
aS'https://www.thingiverse.com/thing:1008943'
p1532
aS'https://www.thingiverse.com/thing:2478555'
p1533
aS'https://www.thingiverse.com/thing:1826126'
p1534
aS'https://www.thingiverse.com/thing:2496584'
p1535
aS'https://www.thingiverse.com/thing:2236323'
p1536
aS'https://www.thingiverse.com/thing:2515063'
p1537
aS'https://www.thingiverse.com/thing:2077676'
p1538
aS'https://www.thingiverse.com/thing:2478157'
p1539
aS'https://www.thingiverse.com/thing:2508075'
p1540
aS'https://www.thingiverse.com/thing:2474101'
p1541
aS'https://www.thingiverse.com/thing:2497610'
p1542
aS'https://www.thingiverse.com/thing:2474588'
p1543
aS'https://www.thingiverse.com/thing:2451882'
p1544
aS'https://www.thingiverse.com/thing:1306832'
p1545
aS'https://www.thingiverse.com/thing:1244599'
p1546
aS'https://www.thingiverse.com/thing:2504519'
p1547
aS'https://www.thingiverse.com/thing:1298487'
p1548
aS'https://www.thingiverse.com/thing:1796331'
p1549
aS'https://www.thingiverse.com/thing:2471089'
p1550
aS'https://www.thingiverse.com/thing:1786619'
p1551
aS'https://www.thingiverse.com/thing:2503232'
p1552
aS'https://www.thingiverse.com/thing:2475184'
p1553
aS'https://www.thingiverse.com/thing:1444028'
p1554
aS'https://www.thingiverse.com/thing:1590702'
p1555
aS'https://www.thingiverse.com/thing:2504199'
p1556
aS'https://www.thingiverse.com/thing:2117245'
p1557
aS'https://www.thingiverse.com/thing:1859575'
p1558
aS'https://www.thingiverse.com/thing:1846654'
p1559
aS'https://www.thingiverse.com/thing:2486472'
p1560
aS'https://www.thingiverse.com/thing:1667166'
p1561
aS'https://www.thingiverse.com/thing:2482010'
p1562
aS'https://www.thingiverse.com/thing:2483959'
p1563
aS'https://www.thingiverse.com/thing:2415437'
p1564
aS'https://www.thingiverse.com/thing:2489089'
p1565
aS'https://www.thingiverse.com/thing:2504995'
p1566
aS'https://www.thingiverse.com/thing:2508492'
p1567
aS'https://www.thingiverse.com/thing:1764551'
p1568
aS'https://www.thingiverse.com/thing:1320872'
p1569
aS'https://www.thingiverse.com/thing:2494979'
p1570
aS'https://www.thingiverse.com/thing:1065360'
p1571
aS'https://www.thingiverse.com/thing:2093126'
p1572
aS'https://www.thingiverse.com/thing:2482208'
p1573
aS'https://www.thingiverse.com/thing:2494577'
p1574
aS'https://www.thingiverse.com/thing:2076034'
p1575
aS'https://www.thingiverse.com/thing:2390954'
p1576
aS'https://www.thingiverse.com/thing:1460181'
p1577
aS'https://www.thingiverse.com/thing:1807800'
p1578
aS'https://www.thingiverse.com/thing:2134573'
p1579
aS'https://www.thingiverse.com/thing:2349065'
p1580
aS'https://www.thingiverse.com/thing:2505394'
p1581
aS'https://www.thingiverse.com/thing:2309451'
p1582
aS'https://www.thingiverse.com/thing:2251647'
p1583
aS'https://www.thingiverse.com/thing:2413227'
p1584
aS'https://www.thingiverse.com/thing:1691788'
p1585
aS'https://www.thingiverse.com/thing:2500074'
p1586
aS'https://www.thingiverse.com/thing:1391911'
p1587
aS'https://www.thingiverse.com/thing:1080198'
p1588
aS'https://www.thingiverse.com/thing:1391919'
p1589
aS'https://www.thingiverse.com/thing:2494751'
p1590
aS'https://www.thingiverse.com/thing:2485636'
p1591
aS'https://www.thingiverse.com/thing:1933366'
p1592
aS'https://www.thingiverse.com/thing:1367661'
p1593
aS'https://www.thingiverse.com/thing:1826736'
p1594
aS'https://www.thingiverse.com/thing:1016045'
p1595
aS'https://www.thingiverse.com/thing:2489429'
p1596
aS'https://www.thingiverse.com/thing:1794348'
p1597
aS'https://www.thingiverse.com/thing:2510628'
p1598
aS'https://www.thingiverse.com/thing:621711'
p1599
aS'https://www.thingiverse.com/thing:913675'
p1600
aS'https://www.thingiverse.com/thing:2503503'
p1601
aS'https://www.thingiverse.com/thing:1246425'
p1602
aS'https://www.thingiverse.com/thing:2170272'
p1603
aS'https://www.thingiverse.com/thing:2520745'
p1604
aS'https://www.thingiverse.com/thing:1850320'
p1605
aS'https://www.thingiverse.com/thing:2312397'
p1606
aS'https://www.thingiverse.com/thing:1721985'
p1607
aS'https://www.thingiverse.com/thing:2067872'
p1608
aS'https://www.thingiverse.com/thing:1330829'
p1609
aS'https://www.thingiverse.com/thing:1084182'
p1610
aS'https://www.thingiverse.com/thing:1202520'
p1611
aS'https://www.thingiverse.com/thing:2460935'
p1612
aS'https://www.thingiverse.com/thing:2460933'
p1613
aS'https://www.thingiverse.com/thing:2480868'
p1614
aS'https://www.thingiverse.com/thing:2480862'
p1615
aS'https://www.thingiverse.com/thing:2502129'
p1616
aS'https://www.thingiverse.com/thing:1784375'
p1617
aS'https://www.thingiverse.com/thing:2306541'
p1618
aS'https://www.thingiverse.com/thing:1978880'
p1619
aS'https://www.thingiverse.com/thing:1201877'
p1620
aS'https://www.thingiverse.com/thing:2363902'
p1621
aS'https://www.thingiverse.com/thing:2477936'
p1622
aS'https://www.thingiverse.com/thing:2326111'
p1623
aS'https://www.thingiverse.com/thing:2491584'
p1624
aS'https://www.thingiverse.com/thing:1736691'
p1625
aS'https://www.thingiverse.com/thing:2108211'
p1626
aS'https://www.thingiverse.com/thing:2476519'
p1627
aS'https://www.thingiverse.com/thing:1348371'
p1628
aS'https://www.thingiverse.com/thing:1848700'
p1629
aS'https://www.thingiverse.com/thing:1616127'
p1630
aS'https://www.thingiverse.com/thing:2480667'
p1631
aS'https://www.thingiverse.com/thing:2431211'
p1632
aS'https://www.thingiverse.com/thing:2448254'
p1633
aS'https://www.thingiverse.com/thing:1173465'
p1634
aS'https://www.thingiverse.com/thing:2491053'
p1635
aS'https://www.thingiverse.com/thing:2351087'
p1636
aS'https://www.thingiverse.com/thing:2113145'
p1637
aS'https://www.thingiverse.com/thing:2477339'
p1638
aS'https://www.thingiverse.com/thing:1692007'
p1639
aS'https://www.thingiverse.com/thing:2234489'
p1640
aS'https://www.thingiverse.com/thing:1256110'
p1641
aS'https://www.thingiverse.com/thing:2502757'
p1642
aS'https://www.thingiverse.com/thing:1795148'
p1643
aS'https://www.thingiverse.com/thing:2502912'
p1644
aS'https://www.thingiverse.com/thing:1344303'
p1645
aS'https://www.thingiverse.com/thing:2501922'
p1646
aS'https://www.thingiverse.com/thing:1750333'
p1647
aS'https://www.thingiverse.com/thing:1732114'
p1648
aS'https://www.thingiverse.com/thing:2006671'
p1649
aS'https://www.thingiverse.com/thing:2010468'
p1650
aS'https://www.thingiverse.com/thing:2487112'
p1651
aS'https://www.thingiverse.com/thing:1559232'
p1652
aS'https://www.thingiverse.com/thing:1982745'
p1653
aS'https://www.thingiverse.com/thing:1993384'
p1654
aS'https://www.thingiverse.com/thing:2149867'
p1655
aS'https://www.thingiverse.com/thing:2204630'
p1656
aS'https://www.thingiverse.com/thing:1359913'
p1657
aS'https://www.thingiverse.com/thing:2517839'
p1658
aS'https://www.thingiverse.com/thing:2474590'
p1659
aS'https://www.thingiverse.com/thing:2009495'
p1660
aS'https://www.thingiverse.com/thing:2069128'
p1661
aS'https://www.thingiverse.com/thing:2146448'
p1662
aS'https://www.thingiverse.com/thing:2396718'
p1663
aS'https://www.thingiverse.com/thing:1648580'
p1664
aS'https://www.thingiverse.com/thing:2449381'
p1665
aS'https://www.thingiverse.com/thing:2016985'
p1666
aS'https://www.thingiverse.com/thing:2357481'
p1667
aS'https://www.thingiverse.com/thing:1774473'
p1668
aS'https://www.thingiverse.com/thing:2504368'
p1669
aS'https://www.thingiverse.com/thing:1187867'
p1670
aS'https://www.thingiverse.com/thing:2456990'
p1671
aS'https://www.thingiverse.com/thing:2144338'
p1672
aS'https://www.thingiverse.com/thing:2502624'
p1673
aS'https://www.thingiverse.com/thing:1911391'
p1674
aS'https://www.thingiverse.com/thing:2484978'
p1675
aS'https://www.thingiverse.com/thing:2474750'
p1676
aS'https://www.thingiverse.com/thing:1091665'
p1677
aS'https://www.thingiverse.com/thing:1413699'
p1678
aS'https://www.thingiverse.com/thing:2493749'
p1679
aS'https://www.thingiverse.com/thing:2427726'
p1680
aS'https://www.thingiverse.com/thing:2478927'
p1681
aS'https://www.thingiverse.com/thing:2486444'
p1682
aS'https://www.thingiverse.com/thing:468446'
p1683
aS'https://www.thingiverse.com/thing:2468780'
p1684
aS'https://www.thingiverse.com/thing:2479617'
p1685
aS'https://www.thingiverse.com/thing:1810411'
p1686
aS'https://www.thingiverse.com/thing:1560492'
p1687
aS'https://www.thingiverse.com/thing:1374915'
p1688
aS'https://www.thingiverse.com/thing:2478052'
p1689
aS'https://www.thingiverse.com/thing:2024019'
p1690
aS'https://www.thingiverse.com/thing:2186203'
p1691
aS'https://www.thingiverse.com/thing:2482219'
p1692
aS'https://www.thingiverse.com/thing:2478907'
p1693
aS'https://www.thingiverse.com/thing:2486226'
p1694
aS'https://www.thingiverse.com/thing:2504387'
p1695
aS'https://www.thingiverse.com/thing:2313700'
p1696
aS'https://www.thingiverse.com/thing:1919544'
p1697
aS'https://www.thingiverse.com/thing:2510102'
p1698
aS'https://www.thingiverse.com/thing:2493567'
p1699
aS'https://www.thingiverse.com/thing:2498200'
p1700
aS'https://www.thingiverse.com/thing:2122704'
p1701
aS'https://www.thingiverse.com/thing:2169547'
p1702
aS'https://www.thingiverse.com/thing:2296540'
p1703
aS'https://www.thingiverse.com/thing:2520171'
p1704
aS'https://www.thingiverse.com/thing:2477530'
p1705
aS'https://www.thingiverse.com/thing:1730521'
p1706
aS'https://www.thingiverse.com/thing:2016760'
p1707
aS'https://www.thingiverse.com/thing:2133328'
p1708
aS'https://www.thingiverse.com/thing:2193858'
p1709
aS'https://www.thingiverse.com/thing:2494219'
p1710
aS'https://www.thingiverse.com/thing:2133327'
p1711
aS'https://www.thingiverse.com/thing:2183259'
p1712
aS'https://www.thingiverse.com/thing:2458429'
p1713
aS'https://www.thingiverse.com/thing:2477858'
p1714
aS'https://www.thingiverse.com/thing:2205760'
p1715
aS'https://www.thingiverse.com/thing:2435230'
p1716
aS'https://www.thingiverse.com/thing:2450913'
p1717
aS'https://www.thingiverse.com/thing:2368315'
p1718
aS'https://www.thingiverse.com/thing:2496839'
p1719
aS'https://www.thingiverse.com/thing:1692794'
p1720
aS'https://www.thingiverse.com/thing:1337200'
p1721
aS'https://www.thingiverse.com/thing:2331488'
p1722
aS'https://www.thingiverse.com/thing:2338105'
p1723
aS'https://www.thingiverse.com/thing:1538314'
p1724
aS'https://www.thingiverse.com/thing:1769656'
p1725
aS'https://www.thingiverse.com/thing:2169799'
p1726
aS'https://www.thingiverse.com/thing:2505403'
p1727
aS'https://www.thingiverse.com/thing:1828359'
p1728
aS'https://www.thingiverse.com/thing:1572431'
p1729
aS'https://www.thingiverse.com/thing:1828362'
p1730
aS'https://www.thingiverse.com/thing:2480901'
p1731
aS'https://www.thingiverse.com/thing:1271858'
p1732
aS'https://www.thingiverse.com/thing:2473486'
p1733
aS'https://www.thingiverse.com/thing:2481832'
p1734
aS'https://www.thingiverse.com/thing:1848665'
p1735
aS'https://www.thingiverse.com/thing:1848663'
p1736
aS'https://www.thingiverse.com/thing:1746191'
p1737
aS'https://www.thingiverse.com/thing:1602460'
p1738
aS'https://www.thingiverse.com/thing:1584956'
p1739
aS'https://www.thingiverse.com/thing:2489622'
p1740
aS'https://www.thingiverse.com/thing:2395716'
p1741
aS'https://www.thingiverse.com/thing:2490193'
p1742
aS'https://www.thingiverse.com/thing:1939676'
p1743
aS'https://www.thingiverse.com/thing:1512115'
p1744
aS'https://www.thingiverse.com/thing:1197094'
p1745
aS'https://www.thingiverse.com/thing:1710099'
p1746
aS'https://www.thingiverse.com/thing:2216161'
p1747
aS'https://www.thingiverse.com/thing:2286789'
p1748
aS'https://www.thingiverse.com/thing:1929165'
p1749
aS'https://www.thingiverse.com/thing:1787728'
p1750
aS'https://www.thingiverse.com/thing:2506159'
p1751
aS'https://www.thingiverse.com/thing:2490860'
p1752
aS'https://www.thingiverse.com/thing:2480275'
p1753
aS'https://www.thingiverse.com/thing:2006457'
p1754
aS'https://www.thingiverse.com/thing:2180255'
p1755
aS'https://www.thingiverse.com/thing:1035878'
p1756
atp1757
Rp1758
.